
C:/Users/leomi/Downloads/TRexGame/getting_started.axf:     file format elf32-littlearm


Disassembly of section .text:

00000000 <__cs3_interrupt_vector>:
       0:	18 f0 9f e5 18 f0 9f e5 18 f0 9f e5 18 f0 9f e5     ................
      10:	18 f0 9f e5 18 f0 9f e5 18 f0 9f e5 18 f0 9f e5     ................
      20:	40 00 00 00 08 9d 00 00 0c 9d 00 00 10 9d 00 00     @...............
      30:	14 9d 00 00 04 9d 00 00 18 9d 00 00 1c 9d 00 00     ................

00000040 <__cs3_reset>:
      40:	ea000026 	b	e0 <__cs3_start_asm_sim>

00000044 <__cs3_start_c>:
      44:	e59f608c 	ldr	r6, [pc, #140]	; d8 <__cs3_region_zero_size_ram+0x38>
      48:	e3560000 	cmp	r6, #0
      4c:	e92d4080 	push	{r7, lr}
      50:	e2466001 	sub	r6, r6, #1
      54:	0a00001e 	beq	d4 <__cs3_region_zero_size_ram+0x34>
      58:	e59f507c 	ldr	r5, [pc, #124]	; dc <__cs3_region_zero_size_ram+0x3c>
      5c:	e3a00000 	mov	r0, #0
      60:	e3a01000 	mov	r1, #0
      64:	e515200c 	ldr	r2, [r5, #-12]
      68:	e515e010 	ldr	lr, [r5, #-16]
      6c:	e5154008 	ldr	r4, [r5, #-8]
      70:	e15e0002 	cmp	lr, r2
      74:	00822004 	addeq	r2, r2, r4
      78:	0a000009 	beq	a4 <__cs3_region_zero_size_ram+0x4>
      7c:	e3540000 	cmp	r4, #0
      80:	0a000007 	beq	a4 <__cs3_region_zero_size_ram+0x4>
      84:	e1a07002 	mov	r7, r2
      88:	e1a0c002 	mov	r12, r2
      8c:	e8be000c 	ldm	lr!, {r2, r3}
      90:	e8ac000c 	stmia	r12!, {r2, r3}
      94:	e067300c 	rsb	r3, r7, r12
      98:	e1540003 	cmp	r4, r3
      9c:	e1a0200c 	mov	r2, r12
      a0:	1afffff9 	bne	8c <__cs3_start_c+0x48>
      a4:	e515e004 	ldr	lr, [r5, #-4]
      a8:	e35e0000 	cmp	lr, #0
      ac:	11a03002 	movne	r3, r2
      b0:	0a000003 	beq	c4 <__cs3_region_zero_size_ram+0x24>
      b4:	e8a30003 	stmia	r3!, {r0, r1}
      b8:	e062c003 	rsb	r12, r2, r3
      bc:	e15e000c 	cmp	lr, r12
      c0:	1afffffb 	bne	b4 <__cs3_region_zero_size_ram+0x14>
      c4:	e2466001 	sub	r6, r6, #1
      c8:	e3760001 	cmn	r6, #1
      cc:	e2855014 	add	r5, r5, #20
      d0:	1affffe3 	bne	64 <__cs3_start_c+0x20>
      d4:	eb0026d5 	bl	9c30 <__cs3_premain>
      d8:	00000001 	.word	0x00000001
      dc:	0000a078 	.word	0x0000a078

000000e0 <__cs3_start_asm_sim>:
      e0:	e28f103c 	add	r1, pc, #60	; 0x3c
      e4:	e3a00016 	mov	r0, #22
      e8:	ef123456 	svc	0x00123456
      ec:	e3500000 	cmp	r0, #0
      f0:	ba000008 	blt	118 <__cs3_start_asm_sim+0x38>
      f4:	e59f2028 	ldr	r2, [pc, #40]	; 124 <__cs3_heap_start_ptr>
      f8:	e59fd01c 	ldr	sp, [pc, #28]	; 11c <__cs3_start_asm_sim+0x3c>
      fc:	e5920008 	ldr	r0, [r2, #8]
     100:	e3500000 	cmp	r0, #0
     104:	11a0d000 	movne	sp, r0
     108:	e59f1010 	ldr	r1, [pc, #16]	; 120 <__cs3_start_asm_sim+0x40>
     10c:	e5920004 	ldr	r0, [r2, #4]
     110:	e3500000 	cmp	r0, #0
     114:	15810000 	strne	r0, [r1]
     118:	eaffffc9 	b	44 <__cs3_start_c>
     11c:	3ffffff8 	.word	0x3ffffff8
     120:	0000ae94 	.word	0x0000ae94

00000124 <__cs3_heap_start_ptr>:
     124:	0000af40 	.word	0x0000af40

00000128 <_start>:
     128:	e51fd000 	ldr	sp, [pc, #-0]	; 130 <_start+0x8>
     12c:	eaffffc4 	b	44 <__cs3_start_c>
     130:	3ffffff8 	.word	0x3ffffff8

00000134 <deregister_tm_clones>:
     134:	e92d4008 	push	{r3, lr}
     138:	e59f002c 	ldr	r0, [pc, #44]	; 16c <deregister_tm_clones+0x38>
     13c:	e59f302c 	ldr	r3, [pc, #44]	; 170 <deregister_tm_clones+0x3c>
     140:	e0603003 	rsb	r3, r0, r3
     144:	e3530006 	cmp	r3, #6
     148:	8a000001 	bhi	154 <deregister_tm_clones+0x20>
     14c:	e8bd4008 	pop	{r3, lr}
     150:	e12fff1e 	bx	lr
     154:	e59f3018 	ldr	r3, [pc, #24]	; 174 <deregister_tm_clones+0x40>
     158:	e3530000 	cmp	r3, #0
     15c:	0afffffa 	beq	14c <deregister_tm_clones+0x18>
     160:	e1a0e00f 	mov	lr, pc
     164:	e12fff13 	bx	r3
     168:	eafffff7 	b	14c <deregister_tm_clones+0x18>
     16c:	0000aea0 	.word	0x0000aea0
     170:	0000aea3 	.word	0x0000aea3
     174:	00000000 	.word	0x00000000

00000178 <register_tm_clones>:
     178:	e92d4008 	push	{r3, lr}
     17c:	e59f0034 	ldr	r0, [pc, #52]	; 1b8 <register_tm_clones+0x40>
     180:	e59f3034 	ldr	r3, [pc, #52]	; 1bc <register_tm_clones+0x44>
     184:	e0603003 	rsb	r3, r0, r3
     188:	e1a03143 	asr	r3, r3, #2
     18c:	e0833fa3 	add	r3, r3, r3, lsr #31
     190:	e1b010c3 	asrs	r1, r3, #1
     194:	1a000001 	bne	1a0 <register_tm_clones+0x28>
     198:	e8bd4008 	pop	{r3, lr}
     19c:	e12fff1e 	bx	lr
     1a0:	e59f2018 	ldr	r2, [pc, #24]	; 1c0 <register_tm_clones+0x48>
     1a4:	e3520000 	cmp	r2, #0
     1a8:	0afffffa 	beq	198 <register_tm_clones+0x20>
     1ac:	e1a0e00f 	mov	lr, pc
     1b0:	e12fff12 	bx	r2
     1b4:	eafffff7 	b	198 <register_tm_clones+0x20>
     1b8:	0000aea0 	.word	0x0000aea0
     1bc:	0000aea0 	.word	0x0000aea0
     1c0:	00000000 	.word	0x00000000

000001c4 <__do_global_dtors_aux>:
     1c4:	e92d4010 	push	{r4, lr}
     1c8:	e59f402c 	ldr	r4, [pc, #44]	; 1fc <__do_global_dtors_aux+0x38>
     1cc:	e5d43000 	ldrb	r3, [r4]
     1d0:	e3530000 	cmp	r3, #0
     1d4:	1a000006 	bne	1f4 <__do_global_dtors_aux+0x30>
     1d8:	ebffffd5 	bl	134 <deregister_tm_clones>
     1dc:	e59f301c 	ldr	r3, [pc, #28]	; 200 <__do_global_dtors_aux+0x3c>
     1e0:	e3530000 	cmp	r3, #0
     1e4:	159f0018 	ldrne	r0, [pc, #24]	; 204 <__do_global_dtors_aux+0x40>
     1e8:	1320f000 	nopne	{0}
     1ec:	e3a03001 	mov	r3, #1
     1f0:	e5c43000 	strb	r3, [r4]
     1f4:	e8bd4010 	pop	{r4, lr}
     1f8:	e12fff1e 	bx	lr
     1fc:	0000aea0 	.word	0x0000aea0
     200:	00000000 	.word	0x00000000
     204:	00009db8 	.word	0x00009db8

00000208 <frame_dummy>:
     208:	e92d4008 	push	{r3, lr}
     20c:	e59f3034 	ldr	r3, [pc, #52]	; 248 <frame_dummy+0x40>
     210:	e3530000 	cmp	r3, #0
     214:	159f0030 	ldrne	r0, [pc, #48]	; 24c <frame_dummy+0x44>
     218:	159f1030 	ldrne	r1, [pc, #48]	; 250 <frame_dummy+0x48>
     21c:	1320f000 	nopne	{0}
     220:	e59f002c 	ldr	r0, [pc, #44]	; 254 <frame_dummy+0x4c>
     224:	e5903000 	ldr	r3, [r0]
     228:	e3530000 	cmp	r3, #0
     22c:	0a000003 	beq	240 <frame_dummy+0x38>
     230:	e59f3020 	ldr	r3, [pc, #32]	; 258 <frame_dummy+0x50>
     234:	e3530000 	cmp	r3, #0
     238:	11a0e00f 	movne	lr, pc
     23c:	112fff13 	bxne	r3
     240:	e8bd4008 	pop	{r3, lr}
     244:	eaffffcb 	b	178 <register_tm_clones>
     248:	00000000 	.word	0x00000000
     24c:	00009db8 	.word	0x00009db8
     250:	0000aea4 	.word	0x0000aea4
     254:	0000a078 	.word	0x0000a078
     258:	00000000 	.word	0x00000000

0000025c <swap_buffers>:
};

/* Double buffering */
void swap_buffers() {
    volatile int *pixel_ctrl_ptr = (int *)PIXEL_BUF_CTRL_BASE;
    if (*(pixel_ctrl_ptr + 1) == BUFFER0)
     25c:	e3033fff 	movw	r3, #16383	; 0x3fff
     260:	e34f3f20 	movt	r3, #65312	; 0xff20
     264:	e5133fdb 	ldr	r3, [r3, #-4059]	; 0xfffff025
     268:	e3530332 	cmp	r3, #-939524096	; 0xc8000000
        *(pixel_ctrl_ptr + 1) = BUFFER1;
     26c:	e3033fff 	movw	r3, #16383	; 0x3fff
     270:	e34f3f20 	movt	r3, #65312	; 0xff20
     274:	03a024c9 	moveq	r2, #-922746880	; 0xc9000000
    else
        *(pixel_ctrl_ptr + 1) = BUFFER0;
     278:	13a02332 	movne	r2, #-939524096	; 0xc8000000
     27c:	e5032fdb 	str	r2, [r3, #-4059]	; 0xfffff025
    while ((*(pixel_ctrl_ptr + 3) & 0x01) != 0);  // espera troca do buffer
     280:	e3032fff 	movw	r2, #16383	; 0x3fff
     284:	e34f2f20 	movt	r2, #65312	; 0xff20
     288:	e5123fd3 	ldr	r3, [r2, #-4051]	; 0xfffff02d
     28c:	e3130001 	tst	r3, #1
     290:	1afffffc 	bne	288 <swap_buffers+0x2c>
}
     294:	e12fff1e 	bx	lr

00000298 <get_data_bits>:

int get_data_bits(int mode) {
    switch (mode) {
     298:	e3500039 	cmp	r0, #57	; 0x39
     29c:	979ff100 	ldrls	pc, [pc, r0, lsl #2]
     2a0:	ea00004b 	b	3d4 <get_data_bits+0x13c>
     2a4:	0000038c 	.word	0x0000038c
     2a8:	000003d4 	.word	0x000003d4
     2ac:	000003d4 	.word	0x000003d4
     2b0:	000003d4 	.word	0x000003d4
     2b4:	000003d4 	.word	0x000003d4
     2b8:	000003d4 	.word	0x000003d4
     2bc:	000003d4 	.word	0x000003d4
     2c0:	000003dc 	.word	0x000003dc
     2c4:	000003d4 	.word	0x000003d4
     2c8:	000003d4 	.word	0x000003d4
     2cc:	000003d4 	.word	0x000003d4
     2d0:	000003d4 	.word	0x000003d4
     2d4:	000003d4 	.word	0x000003d4
     2d8:	000003d4 	.word	0x000003d4
     2dc:	000003d4 	.word	0x000003d4
     2e0:	000003d4 	.word	0x000003d4
     2e4:	000003d4 	.word	0x000003d4
     2e8:	000003dc 	.word	0x000003dc
     2ec:	00000394 	.word	0x00000394
     2f0:	000003d4 	.word	0x000003d4
     2f4:	0000039c 	.word	0x0000039c
     2f8:	000003d4 	.word	0x000003d4
     2fc:	000003d4 	.word	0x000003d4
     300:	000003a4 	.word	0x000003a4
     304:	000003d4 	.word	0x000003d4
     308:	000003ac 	.word	0x000003ac
     30c:	000003d4 	.word	0x000003d4
     310:	000003d4 	.word	0x000003d4
     314:	000003d4 	.word	0x000003d4
     318:	000003d4 	.word	0x000003d4
     31c:	000003d4 	.word	0x000003d4
     320:	000003d4 	.word	0x000003d4
     324:	000003d4 	.word	0x000003d4
     328:	000003d4 	.word	0x000003d4
     32c:	000003d4 	.word	0x000003d4
     330:	000003d4 	.word	0x000003d4
     334:	000003d4 	.word	0x000003d4
     338:	000003d4 	.word	0x000003d4
     33c:	000003d4 	.word	0x000003d4
     340:	000003d4 	.word	0x000003d4
     344:	000003d4 	.word	0x000003d4
     348:	000003d4 	.word	0x000003d4
     34c:	000003d4 	.word	0x000003d4
     350:	000003d4 	.word	0x000003d4
     354:	000003d4 	.word	0x000003d4
     358:	000003d4 	.word	0x000003d4
     35c:	000003d4 	.word	0x000003d4
     360:	000003d4 	.word	0x000003d4
     364:	000003d4 	.word	0x000003d4
     368:	000003dc 	.word	0x000003dc
     36c:	000003b4 	.word	0x000003b4
     370:	000003bc 	.word	0x000003bc
     374:	000003d4 	.word	0x000003d4
     378:	000003d4 	.word	0x000003d4
     37c:	000003d4 	.word	0x000003d4
     380:	000003c4 	.word	0x000003c4
     384:	000003d4 	.word	0x000003d4
     388:	000003cc 	.word	0x000003cc
        case 0x0:   return 1;
     38c:	e3a00001 	mov	r0, #1
     390:	e12fff1e 	bx	lr
        case 0x7:   return 8;
        case 0x11:  return 8;
        case 0x12:  return 9;
     394:	e3a00009 	mov	r0, #9
     398:	e12fff1e 	bx	lr
        case 0x14:  return 16;
     39c:	e3a00010 	mov	r0, #16
     3a0:	e12fff1e 	bx	lr
        case 0x17:  return 24;
     3a4:	e3a00018 	mov	r0, #24
     3a8:	e12fff1e 	bx	lr
        case 0x19:  return 30;
     3ac:	e3a0001e 	mov	r0, #30
     3b0:	e12fff1e 	bx	lr
        case 0x31:  return 8;
        case 0x32:  return 12;
     3b4:	e3a0000c 	mov	r0, #12
     3b8:	e12fff1e 	bx	lr
        case 0x33:  return 16;
     3bc:	e3a00010 	mov	r0, #16
     3c0:	e12fff1e 	bx	lr
        case 0x37:  return 32;
     3c4:	e3a00020 	mov	r0, #32
     3c8:	e12fff1e 	bx	lr
        case 0x39:  return 40;
     3cc:	e3a00028 	mov	r0, #40	; 0x28
     3d0:	e12fff1e 	bx	lr
        default:    return 16;
     3d4:	e3a00010 	mov	r0, #16
     3d8:	e12fff1e 	bx	lr
}

int get_data_bits(int mode) {
    switch (mode) {
        case 0x0:   return 1;
        case 0x7:   return 8;
     3dc:	e3a00008 	mov	r0, #8
        case 0x33:  return 16;
        case 0x37:  return 32;
        case 0x39:  return 40;
        default:    return 16;
    }
}
     3e0:	e12fff1e 	bx	lr

000003e4 <resample_rgb>:

int resample_rgb(int num_bits, int color) {
    if (num_bits == 8) {
     3e4:	e3500008 	cmp	r0, #8
     3e8:	1a000008 	bne	410 <resample_rgb+0x2c>
        color = (((color >> 16) & 0xE0)
               | ((color >> 11) & 0x1C)
     3ec:	e1a005c1 	asr	r0, r1, #11
     3f0:	e200001c 	and	r0, r0, #28
    }
}

int resample_rgb(int num_bits, int color) {
    if (num_bits == 8) {
        color = (((color >> 16) & 0xE0)
     3f4:	e1a03841 	asr	r3, r1, #16
     3f8:	e20330e0 	and	r3, r3, #224	; 0xe0
               | ((color >> 11) & 0x1C)
     3fc:	e1800003 	orr	r0, r0, r3
               | ((color >> 6 ) & 0x03));
     400:	e7e11351 	ubfx	r1, r1, #6, #2
    }
}

int resample_rgb(int num_bits, int color) {
    if (num_bits == 8) {
        color = (((color >> 16) & 0xE0)
     404:	e1800001 	orr	r0, r0, r1
               | ((color >> 11) & 0x1C)
               | ((color >> 6 ) & 0x03));
        color = (color << 8) | color;
     408:	e1800400 	orr	r0, r0, r0, lsl #8
     40c:	e12fff1e 	bx	lr
    } else {
        color = (((color >> 8) & 0xF800)
               | ((color >> 5) & 0x07E0)
     410:	e1a002c1 	asr	r0, r1, #5
     414:	e2000e7e 	and	r0, r0, #2016	; 0x7e0
        color = (((color >> 16) & 0xE0)
               | ((color >> 11) & 0x1C)
               | ((color >> 6 ) & 0x03));
        color = (color << 8) | color;
    } else {
        color = (((color >> 8) & 0xF800)
     418:	e1a03441 	asr	r3, r1, #8
     41c:	e2033b3e 	and	r3, r3, #63488	; 0xf800
               | ((color >> 5) & 0x07E0)
     420:	e1800003 	orr	r0, r0, r3
               | ((color >> 3) & 0x001F));
     424:	e7e411d1 	ubfx	r1, r1, #3, #5
        color = (((color >> 16) & 0xE0)
               | ((color >> 11) & 0x1C)
               | ((color >> 6 ) & 0x03));
        color = (color << 8) | color;
    } else {
        color = (((color >> 8) & 0xF800)
     428:	e1800001 	orr	r0, r0, r1
               | ((color >> 5) & 0x07E0)
               | ((color >> 3) & 0x001F));
    }
    return color;
}
     42c:	e12fff1e 	bx	lr

00000430 <video_text>:

void video_text(int x, int y, char *p) {
    int offset = (y << 7) + x;
     430:	e0801381 	add	r1, r0, r1, lsl #7
    volatile char *buf = (char *)FPGA_CHAR_BASE;
    char c;
    while ((c = *p++) != '\0') {
     434:	e5d23000 	ldrb	r3, [r2]
     438:	e3530000 	cmp	r3, #0
     43c:	012fff1e 	bxeq	lr
     440:	e1a0c002 	mov	r12, r2
               | ((color >> 3) & 0x001F));
    }
    return color;
}

void video_text(int x, int y, char *p) {
     444:	e0622001 	rsb	r2, r2, r1
     448:	e28224c9 	add	r2, r2, #-922746880	; 0xc9000000
    int offset = (y << 7) + x;
    volatile char *buf = (char *)FPGA_CHAR_BASE;
    char c;
    while ((c = *p++) != '\0') {
        buf[offset++] = c;
     44c:	e7c2300c 	strb	r3, [r2, r12]

void video_text(int x, int y, char *p) {
    int offset = (y << 7) + x;
    volatile char *buf = (char *)FPGA_CHAR_BASE;
    char c;
    while ((c = *p++) != '\0') {
     450:	e5fc3001 	ldrb	r3, [r12, #1]!
     454:	e3530000 	cmp	r3, #0
     458:	1afffffb 	bne	44c <video_text+0x1c>
     45c:	e12fff1e 	bx	lr

00000460 <video_box>:
        buf[offset++] = c;
    }
}

void video_box(int x1, int y1, int x2, int y2, short color) {
     460:	e92d4ff8 	push	{r3, r4, r5, r6, r7, r8, r9, r10, r11, lr}
     464:	e1a08001 	mov	r8, r1
     468:	e1a04002 	mov	r4, r2
     46c:	e1a09003 	mov	r9, r3
     470:	e1dd62f8 	ldrsh	r6, [sp, #40]	; 0x28
    volatile int *pixel_buf_ptr = (int *)(*(int *)(PIXEL_BUF_CTRL_BASE)); // BACK buffer
     474:	e3033fff 	movw	r3, #16383	; 0x3fff
     478:	e34f3f20 	movt	r3, #65312	; 0xff20
     47c:	e5135fdf 	ldr	r5, [r3, #-4063]	; 0xfffff021
    int row, col;
    int x_factor = 1 << (res_offset + col_offset);
     480:	e30acebc 	movw	r12, #44732	; 0xaebc
     484:	e340c000 	movt	r12, #0
     488:	e59c3000 	ldr	r3, [r12]
     48c:	e59cb004 	ldr	r11, [r12, #4]
     490:	e083b00b 	add	r11, r3, r11
     494:	e3a0a001 	mov	r10, #1
     498:	e1a0bb1a 	lsl	r11, r10, r11
    int y_factor = 1 << res_offset;
     49c:	e1a0a31a 	lsl	r10, r10, r3
    x1 /= x_factor;  x2 /= x_factor;
     4a0:	e1a0100b 	mov	r1, r11
     4a4:	eb000243 	bl	db8 <__aeabi_idiv>
     4a8:	e1a07000 	mov	r7, r0
     4ac:	e1a00004 	mov	r0, r4
     4b0:	e1a0100b 	mov	r1, r11
     4b4:	eb00023f 	bl	db8 <__aeabi_idiv>
     4b8:	e1a04000 	mov	r4, r0
    y1 /= y_factor;  y2 /= y_factor;
     4bc:	e1a00008 	mov	r0, r8
     4c0:	e1a0100a 	mov	r1, r10
     4c4:	eb00023b 	bl	db8 <__aeabi_idiv>
     4c8:	e1a08000 	mov	r8, r0
     4cc:	e1a00009 	mov	r0, r9
     4d0:	e1a0100a 	mov	r1, r10
     4d4:	eb000237 	bl	db8 <__aeabi_idiv>
    for (row = y1; row <= y2; row++) {
     4d8:	e1580000 	cmp	r8, r0
     4dc:	c8bd8ff8 	popgt	{r3, r4, r5, r6, r7, r8, r9, r10, r11, pc}
     4e0:	ea00000d 	b	51c <video_box+0xbc>
        for (col = x1; col <= x2; col++) {
            int ptr = (int)pixel_buf_ptr
                    + (row << (10 - res_offset - col_offset))
     4e4:	e592c000 	ldr	r12, [r2]
     4e8:	e26cc00a 	rsb	r12, r12, #10
     4ec:	e5921004 	ldr	r1, [r2, #4]
     4f0:	e061c00c 	rsb	r12, r1, r12
                    + (col << 1);
     4f4:	e1a01083 	lsl	r1, r3, #1
            *(short *)ptr = color;
     4f8:	e085cc18 	add	r12, r5, r8, lsl r12
     4fc:	e18c60b1 	strh	r6, [r12, r1]
    int x_factor = 1 << (res_offset + col_offset);
    int y_factor = 1 << res_offset;
    x1 /= x_factor;  x2 /= x_factor;
    y1 /= y_factor;  y2 /= y_factor;
    for (row = y1; row <= y2; row++) {
        for (col = x1; col <= x2; col++) {
     500:	e2833001 	add	r3, r3, #1
     504:	e1540003 	cmp	r4, r3
     508:	aafffff5 	bge	4e4 <video_box+0x84>
    int row, col;
    int x_factor = 1 << (res_offset + col_offset);
    int y_factor = 1 << res_offset;
    x1 /= x_factor;  x2 /= x_factor;
    y1 /= y_factor;  y2 /= y_factor;
    for (row = y1; row <= y2; row++) {
     50c:	e2888001 	add	r8, r8, #1
     510:	e1500008 	cmp	r0, r8
     514:	aa000002 	bge	524 <video_box+0xc4>
     518:	e8bd8ff8 	pop	{r3, r4, r5, r6, r7, r8, r9, r10, r11, pc}
        for (col = x1; col <= x2; col++) {
            int ptr = (int)pixel_buf_ptr
                    + (row << (10 - res_offset - col_offset))
     51c:	e30a2ebc 	movw	r2, #44732	; 0xaebc
     520:	e3402000 	movt	r2, #0
    int x_factor = 1 << (res_offset + col_offset);
    int y_factor = 1 << res_offset;
    x1 /= x_factor;  x2 /= x_factor;
    y1 /= y_factor;  y2 /= y_factor;
    for (row = y1; row <= y2; row++) {
        for (col = x1; col <= x2; col++) {
     524:	e1570004 	cmp	r7, r4
     528:	d1a03007 	movle	r3, r7
     52c:	daffffec 	ble	4e4 <video_box+0x84>
     530:	eafffff5 	b	50c <video_box+0xac>

00000534 <draw_background>:
        }
    }
}

/* Fundo azul, sol, nuvens e grama */
void draw_background(int db) {
     534:	e92d40f0 	push	{r4, r5, r6, r7, lr}
     538:	e24dd00c 	sub	sp, sp, #12
     53c:	e1a06000 	mov	r6, r0
    short sky = resample_rgb(db, 0x87CEEB);    // azul céu
     540:	e30c1eeb 	movw	r1, #52971	; 0xceeb
     544:	e3401087 	movt	r1, #135	; 0x87
     548:	ebffffa5 	bl	3e4 <resample_rgb>
     54c:	e1a07000 	mov	r7, r0
    short sun = resample_rgb(db, 0xFFFF00);    // amarelo sol
     550:	e1a00006 	mov	r0, r6
     554:	e3a01cff 	mov	r1, #65280	; 0xff00
     558:	e34010ff 	movt	r1, #255	; 0xff
     55c:	ebffffa0 	bl	3e4 <resample_rgb>
     560:	e6ff5070 	uxth	r5, r0
    short cloud = resample_rgb(db, 0xFFFFFF);  // branco nuvem
     564:	e1a00006 	mov	r0, r6
     568:	e3e014ff 	mvn	r1, #-16777216	; 0xff000000
     56c:	ebffff9c 	bl	3e4 <resample_rgb>
     570:	e6ff4070 	uxth	r4, r0
    short grass = resample_rgb(db, 0x228B22);  // verde grama
     574:	e1a00006 	mov	r0, r6
     578:	e3081b22 	movw	r1, #35618	; 0x8b22
     57c:	e3401022 	movt	r1, #34	; 0x22
     580:	ebffff97 	bl	3e4 <resample_rgb>
     584:	e1a06000 	mov	r6, r0

    video_box(0, 0, STANDARD_X, GROUND_Y, sky);
     588:	e6bf7077 	sxth	r7, r7
     58c:	e58d7000 	str	r7, [sp]
     590:	e3a00000 	mov	r0, #0
     594:	e1a01000 	mov	r1, r0
     598:	e3a02d05 	mov	r2, #320	; 0x140
     59c:	e3a030e6 	mov	r3, #230	; 0xe6
     5a0:	ebffffae 	bl	460 <video_box>

    // Sol (blocos simples)
    video_box(20, 20, 40, 40, sun);
     5a4:	e6bf5075 	sxth	r5, r5
     5a8:	e58d5000 	str	r5, [sp]
     5ac:	e3a00014 	mov	r0, #20
     5b0:	e1a01000 	mov	r1, r0
     5b4:	e3a02028 	mov	r2, #40	; 0x28
     5b8:	e1a03002 	mov	r3, r2
     5bc:	ebffffa7 	bl	460 <video_box>
    video_box(25, 15, 35, 20, sun);
     5c0:	e58d5000 	str	r5, [sp]
     5c4:	e3a00019 	mov	r0, #25
     5c8:	e3a0100f 	mov	r1, #15
     5cc:	e3a02023 	mov	r2, #35	; 0x23
     5d0:	e3a03014 	mov	r3, #20
     5d4:	ebffffa1 	bl	460 <video_box>
    video_box(15, 25, 20, 35, sun);
     5d8:	e58d5000 	str	r5, [sp]
     5dc:	e3a0000f 	mov	r0, #15
     5e0:	e3a01019 	mov	r1, #25
     5e4:	e3a02014 	mov	r2, #20
     5e8:	e3a03023 	mov	r3, #35	; 0x23
     5ec:	ebffff9b 	bl	460 <video_box>
    video_box(40, 25, 45, 35, sun);
     5f0:	e58d5000 	str	r5, [sp]
     5f4:	e3a00028 	mov	r0, #40	; 0x28
     5f8:	e3a01019 	mov	r1, #25
     5fc:	e3a0202d 	mov	r2, #45	; 0x2d
     600:	e3a03023 	mov	r3, #35	; 0x23
     604:	ebffff95 	bl	460 <video_box>

    // Nuvem 1
    video_box(100, 30, 120, 40, cloud);
     608:	e6bf4074 	sxth	r4, r4
     60c:	e58d4000 	str	r4, [sp]
     610:	e3a00064 	mov	r0, #100	; 0x64
     614:	e3a0101e 	mov	r1, #30
     618:	e3a02078 	mov	r2, #120	; 0x78
     61c:	e3a03028 	mov	r3, #40	; 0x28
     620:	ebffff8e 	bl	460 <video_box>
    video_box(110, 25, 130, 35, cloud);
     624:	e58d4000 	str	r4, [sp]
     628:	e3a0006e 	mov	r0, #110	; 0x6e
     62c:	e3a01019 	mov	r1, #25
     630:	e3a02082 	mov	r2, #130	; 0x82
     634:	e3a03023 	mov	r3, #35	; 0x23
     638:	ebffff88 	bl	460 <video_box>
    video_box(120, 30, 140, 40, cloud);
     63c:	e58d4000 	str	r4, [sp]
     640:	e3a00078 	mov	r0, #120	; 0x78
     644:	e3a0101e 	mov	r1, #30
     648:	e3a0208c 	mov	r2, #140	; 0x8c
     64c:	e3a03028 	mov	r3, #40	; 0x28
     650:	ebffff82 	bl	460 <video_box>

    // Nuvem 2
    video_box(200, 50, 220, 60, cloud);
     654:	e58d4000 	str	r4, [sp]
     658:	e3a000c8 	mov	r0, #200	; 0xc8
     65c:	e3a01032 	mov	r1, #50	; 0x32
     660:	e3a020dc 	mov	r2, #220	; 0xdc
     664:	e3a0303c 	mov	r3, #60	; 0x3c
     668:	ebffff7c 	bl	460 <video_box>
    video_box(210, 45, 230, 55, cloud);
     66c:	e58d4000 	str	r4, [sp]
     670:	e3a000d2 	mov	r0, #210	; 0xd2
     674:	e3a0102d 	mov	r1, #45	; 0x2d
     678:	e3a020e6 	mov	r2, #230	; 0xe6
     67c:	e3a03037 	mov	r3, #55	; 0x37
     680:	ebffff76 	bl	460 <video_box>
    video_box(220, 50, 240, 60, cloud);
     684:	e58d4000 	str	r4, [sp]
     688:	e3a000dc 	mov	r0, #220	; 0xdc
     68c:	e3a01032 	mov	r1, #50	; 0x32
     690:	e3a020f0 	mov	r2, #240	; 0xf0
     694:	e3a0303c 	mov	r3, #60	; 0x3c
     698:	ebffff70 	bl	460 <video_box>

    // Grama (chão verde)
    video_box(0, GROUND_Y, STANDARD_X, GROUND_Y + 5, grass);
     69c:	e6bf6076 	sxth	r6, r6
     6a0:	e58d6000 	str	r6, [sp]
     6a4:	e3a00000 	mov	r0, #0
     6a8:	e3a010e6 	mov	r1, #230	; 0xe6
     6ac:	e3a02d05 	mov	r2, #320	; 0x140
     6b0:	e3a030eb 	mov	r3, #235	; 0xeb
     6b4:	ebffff69 	bl	460 <video_box>
}
     6b8:	e28dd00c 	add	sp, sp, #12
     6bc:	e8bd80f0 	pop	{r4, r5, r6, r7, pc}

000006c0 <draw_trex>:

/* Sprites do T-rex */
void draw_trex(int y, int db) {
     6c0:	e92d4ff0 	push	{r4, r5, r6, r7, r8, r9, r10, r11, lr}
     6c4:	e24dd014 	sub	sp, sp, #20
     6c8:	e58d000c 	str	r0, [sp, #12]
     6cc:	e1a04001 	mov	r4, r1
    short col = resample_rgb(db, 0xFFA500);  // cor laranja
     6d0:	e1a00001 	mov	r0, r1
     6d4:	e3a01ca5 	mov	r1, #42240	; 0xa500
     6d8:	e34010ff 	movt	r1, #255	; 0xff
     6dc:	ebffff40 	bl	3e4 <resample_rgb>
     6e0:	e6ff8070 	uxth	r8, r0
    short bg_sky = resample_rgb(db, 0x87CEEB);
     6e4:	e1a00004 	mov	r0, r4
     6e8:	e30c1eeb 	movw	r1, #52971	; 0xceeb
     6ec:	e3401087 	movt	r1, #135	; 0x87
     6f0:	ebffff3b 	bl	3e4 <resample_rgb>
    // Grama (chão verde)
    video_box(0, GROUND_Y, STANDARD_X, GROUND_Y + 5, grass);
}

/* Sprites do T-rex */
void draw_trex(int y, int db) {
     6f4:	e30ab080 	movw	r11, #41088	; 0xa080
     6f8:	e340b000 	movt	r11, #0
     6fc:	e28b7026 	add	r7, r11, #38	; 0x26
     700:	e28bbfd1 	add	r11, r11, #836	; 0x344
     704:	e28bb002 	add	r11, r11, #2
     708:	e3a06014 	mov	r6, #20
     70c:	e30a9080 	movw	r9, #41088	; 0xa080
     710:	e3409000 	movt	r9, #0
        for (j = 0; j < 20; j++) {
            if (dino[i][j]) {
                video_box(TREX_X + i, j + y, TREX_X + i, j + y, col);
            }
            else {
            	video_box(TREX_X + i, j + y, TREX_X + i, j + y, bg_sky);
     714:	e6bfa070 	sxth	r10, r0
    int i, j;
   
    for (i = 0; i < 20; i++) {
        for (j = 0; j < 20; j++) {
            if (dino[i][j]) {
                video_box(TREX_X + i, j + y, TREX_X + i, j + y, col);
     718:	e6bf8078 	sxth	r8, r8
     71c:	ea00000f 	b	760 <draw_trex+0xa0>
    short bg_sky = resample_rgb(db, 0x87CEEB);
    int i, j;
   
    for (i = 0; i < 20; i++) {
        for (j = 0; j < 20; j++) {
            if (dino[i][j]) {
     720:	e1f530f2 	ldrsh	r3, [r5, #2]!
     724:	e3530000 	cmp	r3, #0
                video_box(TREX_X + i, j + y, TREX_X + i, j + y, col);
     728:	158d8000 	strne	r8, [sp]
            }
            else {
            	video_box(TREX_X + i, j + y, TREX_X + i, j + y, bg_sky);
     72c:	058da000 	streq	r10, [sp]
     730:	e1a00006 	mov	r0, r6
     734:	e1a01004 	mov	r1, r4
     738:	e1a02006 	mov	r2, r6
     73c:	e1a03004 	mov	r3, r4
     740:	ebffff46 	bl	460 <video_box>
     744:	e2844001 	add	r4, r4, #1
    short col = resample_rgb(db, 0xFFA500);  // cor laranja
    short bg_sky = resample_rgb(db, 0x87CEEB);
    int i, j;
   
    for (i = 0; i < 20; i++) {
        for (j = 0; j < 20; j++) {
     748:	e1570005 	cmp	r7, r5
     74c:	1afffff3 	bne	720 <draw_trex+0x60>
     750:	e2877028 	add	r7, r7, #40	; 0x28
     754:	e2866001 	add	r6, r6, #1
void draw_trex(int y, int db) {
    short col = resample_rgb(db, 0xFFA500);  // cor laranja
    short bg_sky = resample_rgb(db, 0x87CEEB);
    int i, j;
   
    for (i = 0; i < 20; i++) {
     758:	e157000b 	cmp	r7, r11
     75c:	0a000005 	beq	778 <draw_trex+0xb8>
    // Grama (chão verde)
    video_box(0, GROUND_Y, STANDARD_X, GROUND_Y + 5, grass);
}

/* Sprites do T-rex */
void draw_trex(int y, int db) {
     760:	e2465014 	sub	r5, r6, #20
     764:	e0855105 	add	r5, r5, r5, lsl #2
     768:	e0895185 	add	r5, r9, r5, lsl #3
     76c:	e2455002 	sub	r5, r5, #2
     770:	e59d400c 	ldr	r4, [sp, #12]
     774:	eaffffe9 	b	720 <draw_trex+0x60>
            else {
            	video_box(TREX_X + i, j + y, TREX_X + i, j + y, bg_sky);
            }
        }        
    }    
}
     778:	e28dd014 	add	sp, sp, #20
     77c:	e8bd8ff0 	pop	{r4, r5, r6, r7, r8, r9, r10, r11, pc}

00000780 <clear_trex>:


void clear_trex(int y, int db) {
     780:	e92d41f0 	push	{r4, r5, r6, r7, r8, lr}
     784:	e24dd008 	sub	sp, sp, #8
     788:	e1a07000 	mov	r7, r0
    short bg_sky = resample_rgb(db, 0x87CEEB);
     78c:	e1a00001 	mov	r0, r1
     790:	e30c1eeb 	movw	r1, #52971	; 0xceeb
     794:	e3401087 	movt	r1, #135	; 0x87
     798:	ebffff11 	bl	3e4 <resample_rgb>
     79c:	e3a05014 	mov	r5, #20
        }        
    }    
}


void clear_trex(int y, int db) {
     7a0:	e3a08000 	mov	r8, #0
    short bg_sky = resample_rgb(db, 0x87CEEB);
    int i, j;
   
    for (i = 0; i < 20; i++) {
        for (j = 0; j < 20; j++) {
            	video_box(TREX_X + i, j + y, TREX_X + i, j + y, bg_sky);
     7a4:	e6bf6070 	sxth	r6, r0
     7a8:	ea00000b 	b	7dc <clear_trex+0x5c>
        }        
    }    
}


void clear_trex(int y, int db) {
     7ac:	e0843007 	add	r3, r4, r7
    short bg_sky = resample_rgb(db, 0x87CEEB);
    int i, j;
   
    for (i = 0; i < 20; i++) {
        for (j = 0; j < 20; j++) {
            	video_box(TREX_X + i, j + y, TREX_X + i, j + y, bg_sky);
     7b0:	e58d6000 	str	r6, [sp]
     7b4:	e1a00005 	mov	r0, r5
     7b8:	e1a01003 	mov	r1, r3
     7bc:	e1a02005 	mov	r2, r5
     7c0:	ebffff26 	bl	460 <video_box>
void clear_trex(int y, int db) {
    short bg_sky = resample_rgb(db, 0x87CEEB);
    int i, j;
   
    for (i = 0; i < 20; i++) {
        for (j = 0; j < 20; j++) {
     7c4:	e2844001 	add	r4, r4, #1
     7c8:	e3540014 	cmp	r4, #20
     7cc:	1afffff6 	bne	7ac <clear_trex+0x2c>
     7d0:	e2855001 	add	r5, r5, #1

void clear_trex(int y, int db) {
    short bg_sky = resample_rgb(db, 0x87CEEB);
    int i, j;
   
    for (i = 0; i < 20; i++) {
     7d4:	e3550028 	cmp	r5, #40	; 0x28
     7d8:	0a000001 	beq	7e4 <clear_trex+0x64>
        }        
    }    
}


void clear_trex(int y, int db) {
     7dc:	e1a04008 	mov	r4, r8
     7e0:	eafffff1 	b	7ac <clear_trex+0x2c>
        for (j = 0; j < 20; j++) {
            	video_box(TREX_X + i, j + y, TREX_X + i, j + y, bg_sky);
           
        }        
    }
}
     7e4:	e28dd008 	add	sp, sp, #8
     7e8:	e8bd81f0 	pop	{r4, r5, r6, r7, r8, pc}

000007ec <draw_cactus>:
/* Sprites de cacto */
void draw_cactus(int x, int height, int db) {
     7ec:	e92d4ff0 	push	{r4, r5, r6, r7, r8, r9, r10, r11, lr}
     7f0:	e24dd014 	sub	sp, sp, #20
     7f4:	e1a06000 	mov	r6, r0
     7f8:	e1a05001 	mov	r5, r1
     7fc:	e1a04002 	mov	r4, r2
    short green = resample_rgb(db, 0xFF00);
     800:	e1a00002 	mov	r0, r2
     804:	e3a01cff 	mov	r1, #65280	; 0xff00
     808:	ebfffef5 	bl	3e4 <resample_rgb>
     80c:	e6ff8070 	uxth	r8, r0
    short bg_sky = resample_rgb(db, 0x87CEEB);
     810:	e1a00004 	mov	r0, r4
     814:	e30c1eeb 	movw	r1, #52971	; 0xceeb
     818:	e3401087 	movt	r1, #135	; 0x87
     81c:	ebfffef0 	bl	3e4 <resample_rgb>
     820:	e59f7078 	ldr	r7, [pc, #120]	; 8a0 <draw_cactus+0xb4>
    int i,j;
   
    for(i = 0; i<14; i++){
     824:	e3a09000 	mov	r9, #0
           
        }        
    }
}
/* Sprites de cacto */
void draw_cactus(int x, int height, int db) {
     828:	e247b026 	sub	r11, r7, #38	; 0x26
     82c:	e26550e6 	rsb	r5, r5, #230	; 0xe6
     830:	e58d500c 	str	r5, [sp, #12]
        for(j = 0; j<20; j++){
        if(cactus[i][j]){
          	video_box(x+i,j+GROUND_Y-height,x+i,j+GROUND_Y-height, green);
          }
          else{
	          video_box(x+i,j+GROUND_Y-height,x+i,j+GROUND_Y-height, bg_sky);
     834:	e6bfa070 	sxth	r10, r0
    int i,j;
   
    for(i = 0; i<14; i++){
        for(j = 0; j<20; j++){
        if(cactus[i][j]){
          	video_box(x+i,j+GROUND_Y-height,x+i,j+GROUND_Y-height, green);
     838:	e6bf8078 	sxth	r8, r8
     83c:	ea000010 	b	884 <draw_cactus+0x98>
    short bg_sky = resample_rgb(db, 0x87CEEB);
    int i,j;
   
    for(i = 0; i<14; i++){
        for(j = 0; j<20; j++){
        if(cactus[i][j]){
     840:	e1f530f2 	ldrsh	r3, [r5, #2]!
     844:	e3530000 	cmp	r3, #0
          	video_box(x+i,j+GROUND_Y-height,x+i,j+GROUND_Y-height, green);
     848:	158d8000 	strne	r8, [sp]
          }
          else{
	          video_box(x+i,j+GROUND_Y-height,x+i,j+GROUND_Y-height, bg_sky);
     84c:	058da000 	streq	r10, [sp]
     850:	e1a00006 	mov	r0, r6
     854:	e1a01004 	mov	r1, r4
     858:	e1a02006 	mov	r2, r6
     85c:	e1a03004 	mov	r3, r4
     860:	ebfffefe 	bl	460 <video_box>
     864:	e2844001 	add	r4, r4, #1
    short green = resample_rgb(db, 0xFF00);
    short bg_sky = resample_rgb(db, 0x87CEEB);
    int i,j;
   
    for(i = 0; i<14; i++){
        for(j = 0; j<20; j++){
     868:	e1570005 	cmp	r7, r5
     86c:	1afffff3 	bne	840 <draw_cactus+0x54>
void draw_cactus(int x, int height, int db) {
    short green = resample_rgb(db, 0xFF00);
    short bg_sky = resample_rgb(db, 0x87CEEB);
    int i,j;
   
    for(i = 0; i<14; i++){
     870:	e2899001 	add	r9, r9, #1
     874:	e2877028 	add	r7, r7, #40	; 0x28
     878:	e2866001 	add	r6, r6, #1
     87c:	e359000e 	cmp	r9, #14
     880:	0a000004 	beq	898 <draw_cactus+0xac>
           
        }        
    }
}
/* Sprites de cacto */
void draw_cactus(int x, int height, int db) {
     884:	e0895109 	add	r5, r9, r9, lsl #2
     888:	e08b5185 	add	r5, r11, r5, lsl #3
     88c:	e2455002 	sub	r5, r5, #2
     890:	e59d400c 	ldr	r4, [sp, #12]
     894:	eaffffe9 	b	840 <draw_cactus+0x54>
          else{
	          video_box(x+i,j+GROUND_Y-height,x+i,j+GROUND_Y-height, bg_sky);
              }
        }
    }
}
     898:	e28dd014 	add	sp, sp, #20
     89c:	e8bd8ff0 	pop	{r4, r5, r6, r7, r8, r9, r10, r11, pc}
     8a0:	0000a3c6 	.word	0x0000a3c6

000008a4 <clear_cactus>:

void clear_cactus(int x, int height, int db) {
     8a4:	e92d47f0 	push	{r4, r5, r6, r7, r8, r9, r10, lr}
     8a8:	e24dd008 	sub	sp, sp, #8
     8ac:	e1a09000 	mov	r9, r0
     8b0:	e1a07001 	mov	r7, r1
    short bg_sky = resample_rgb(db, 0x87CEEB);
     8b4:	e1a00002 	mov	r0, r2
     8b8:	e30c1eeb 	movw	r1, #52971	; 0xceeb
     8bc:	e3401087 	movt	r1, #135	; 0x87
     8c0:	ebfffec7 	bl	3e4 <resample_rgb>
    int i,j;
    for(i = 0; i<14; i++){
     8c4:	e3a08000 	mov	r8, #0
              }
        }
    }
}

void clear_cactus(int x, int height, int db) {
     8c8:	e1a0a008 	mov	r10, r8
     8cc:	e26770e6 	rsb	r7, r7, #230	; 0xe6
    short bg_sky = resample_rgb(db, 0x87CEEB);
    int i,j;
    for(i = 0; i<14; i++){
        for(j = 0; j<20; j++){
	          video_box(x+i,j+GROUND_Y-height,x+i,j+GROUND_Y-height, bg_sky);
     8d0:	e6bf6070 	sxth	r6, r0
     8d4:	ea00000b 	b	908 <clear_cactus+0x64>
              }
        }
    }
}

void clear_cactus(int x, int height, int db) {
     8d8:	e0873004 	add	r3, r7, r4
    short bg_sky = resample_rgb(db, 0x87CEEB);
    int i,j;
    for(i = 0; i<14; i++){
        for(j = 0; j<20; j++){
	          video_box(x+i,j+GROUND_Y-height,x+i,j+GROUND_Y-height, bg_sky);
     8dc:	e58d6000 	str	r6, [sp]
     8e0:	e1a00005 	mov	r0, r5
     8e4:	e1a01003 	mov	r1, r3
     8e8:	e1a02005 	mov	r2, r5
     8ec:	ebfffedb 	bl	460 <video_box>

void clear_cactus(int x, int height, int db) {
    short bg_sky = resample_rgb(db, 0x87CEEB);
    int i,j;
    for(i = 0; i<14; i++){
        for(j = 0; j<20; j++){
     8f0:	e2844001 	add	r4, r4, #1
     8f4:	e3540014 	cmp	r4, #20
     8f8:	1afffff6 	bne	8d8 <clear_cactus+0x34>
}

void clear_cactus(int x, int height, int db) {
    short bg_sky = resample_rgb(db, 0x87CEEB);
    int i,j;
    for(i = 0; i<14; i++){
     8fc:	e2888001 	add	r8, r8, #1
     900:	e358000e 	cmp	r8, #14
     904:	0a000002 	beq	914 <clear_cactus+0x70>
              }
        }
    }
}

void clear_cactus(int x, int height, int db) {
     908:	e1a0400a 	mov	r4, r10
     90c:	e0885009 	add	r5, r8, r9
     910:	eafffff0 	b	8d8 <clear_cactus+0x34>
    for(i = 0; i<14; i++){
        for(j = 0; j<20; j++){
	          video_box(x+i,j+GROUND_Y-height,x+i,j+GROUND_Y-height, bg_sky);
        }
    }
}
     914:	e28dd008 	add	sp, sp, #8
     918:	e8bd87f0 	pop	{r4, r5, r6, r7, r8, r9, r10, pc}

0000091c <reset_game>:
int cactus_heights[MAX_CACTI];
int score;
int frame_count;
bool game_over;

void reset_game() {
     91c:	e92d4070 	push	{r4, r5, r6, lr}
     920:	e24dd008 	sub	sp, sp, #8
    int i;
    trex_y        = GROUND_Y - TREX_HEIGHT;
     924:	e30a3ebc 	movw	r3, #44732	; 0xaebc
     928:	e3403000 	movt	r3, #0
     92c:	e3a020d2 	mov	r2, #210	; 0xd2
     930:	e5832008 	str	r2, [r3, #8]
    jumping       = false;
     934:	e3a04000 	mov	r4, #0
     938:	e5c3400c 	strb	r4, [r3, #12]
    jump_velocity = 0;
     93c:	e5834010 	str	r4, [r3, #16]
    frame_count   = 0;
     940:	e5834014 	str	r4, [r3, #20]
    score         = 0;
     944:	e5834018 	str	r4, [r3, #24]
    game_over     = false;
     948:	e5c3401c 	strb	r4, [r3, #28]
    for (i = 0; i < MAX_CACTI; i++) {
        cactus_x[i]       = screen_x + i * 80;
     94c:	e5931020 	ldr	r1, [r3, #32]
     950:	e5831024 	str	r1, [r3, #36]	; 0x24
        cactus_heights[i] = 20;
     954:	e3a02014 	mov	r2, #20
     958:	e5832030 	str	r2, [r3, #48]	; 0x30
    jump_velocity = 0;
    frame_count   = 0;
    score         = 0;
    game_over     = false;
    for (i = 0; i < MAX_CACTI; i++) {
        cactus_x[i]       = screen_x + i * 80;
     95c:	e2810050 	add	r0, r1, #80	; 0x50
     960:	e5830028 	str	r0, [r3, #40]	; 0x28
        cactus_heights[i] = 20;
     964:	e5832034 	str	r2, [r3, #52]	; 0x34
    jump_velocity = 0;
    frame_count   = 0;
    score         = 0;
    game_over     = false;
    for (i = 0; i < MAX_CACTI; i++) {
        cactus_x[i]       = screen_x + i * 80;
     968:	e28110a0 	add	r1, r1, #160	; 0xa0
     96c:	e583102c 	str	r1, [r3, #44]	; 0x2c
        cactus_heights[i] = 20;
     970:	e5832038 	str	r2, [r3, #56]	; 0x38
    }
    // Limpar tela no back buffer antes do próximo frame
    int db = get_data_bits(*(int *)(RGB_RESAMPLER_BASE) & 0x3F);
    video_box(0, 0, STANDARD_X, STANDARD_Y, 0);
     974:	e58d4000 	str	r4, [sp]
     978:	e1a00004 	mov	r0, r4
     97c:	e1a01004 	mov	r1, r4
     980:	e3a02d05 	mov	r2, #320	; 0x140
     984:	e3a030f0 	mov	r3, #240	; 0xf0
     988:	ebfffeb4 	bl	460 <video_box>
    for (i = 0; i < 60; i++) {
        video_text(0, i, "                                                                                ");
     98c:	e3095dc8 	movw	r5, #40392	; 0x9dc8
     990:	e3405000 	movt	r5, #0
     994:	e1a06004 	mov	r6, r4
     998:	e1a00006 	mov	r0, r6
     99c:	e1a01004 	mov	r1, r4
     9a0:	e1a02005 	mov	r2, r5
     9a4:	ebfffea1 	bl	430 <video_text>
        cactus_heights[i] = 20;
    }
    // Limpar tela no back buffer antes do próximo frame
    int db = get_data_bits(*(int *)(RGB_RESAMPLER_BASE) & 0x3F);
    video_box(0, 0, STANDARD_X, STANDARD_Y, 0);
    for (i = 0; i < 60; i++) {
     9a8:	e2844001 	add	r4, r4, #1
     9ac:	e354003c 	cmp	r4, #60	; 0x3c
     9b0:	1afffff8 	bne	998 <reset_game+0x7c>
        video_text(0, i, "                                                                                ");
    }
}
     9b4:	e28dd008 	add	sp, sp, #8
     9b8:	e8bd8070 	pop	{r4, r5, r6, pc}

000009bc <check_collision>:

bool check_collision(int cx, int ch) {
    return cx < TREX_X + TREX_WIDTH
        && cx + CACTUS_WIDTH > TREX_X
        && trex_y + TREX_HEIGHT >= GROUND_Y - ch;
     9bc:	e3500027 	cmp	r0, #39	; 0x27
     9c0:	ca00000b 	bgt	9f4 <check_collision+0x38>
    }
}

bool check_collision(int cx, int ch) {
    return cx < TREX_X + TREX_WIDTH
        && cx + CACTUS_WIDTH > TREX_X
     9c4:	e2800006 	add	r0, r0, #6
     9c8:	e3500014 	cmp	r0, #20
     9cc:	da00000a 	ble	9fc <check_collision+0x40>
        && trex_y + TREX_HEIGHT >= GROUND_Y - ch;
     9d0:	e30a3ebc 	movw	r3, #44732	; 0xaebc
     9d4:	e3403000 	movt	r3, #0
     9d8:	e5930008 	ldr	r0, [r3, #8]
     9dc:	e2800014 	add	r0, r0, #20
     9e0:	e26110e6 	rsb	r1, r1, #230	; 0xe6
     9e4:	e1500001 	cmp	r0, r1
     9e8:	b3a00000 	movlt	r0, #0
     9ec:	a3a00001 	movge	r0, #1
     9f0:	e12fff1e 	bx	lr
     9f4:	e3a00000 	mov	r0, #0
     9f8:	e12fff1e 	bx	lr
     9fc:	e3a00000 	mov	r0, #0
}
     a00:	e12fff1e 	bx	lr

00000a04 <main>:

int main(void) {
     a04:	e92d4ff0 	push	{r4, r5, r6, r7, r8, r9, r10, r11, lr}
     a08:	e24dd03c 	sub	sp, sp, #60	; 0x3c
    volatile int *key_ptr          = (int *)(KEY_BASE);
    volatile int *pixel_ctrl_ptr   = (int *)PIXEL_BUF_CTRL_BASE;

    // Inicializa vídeo
    {
        int vr = *video_resolution;
     a0c:	e3034fff 	movw	r4, #16383	; 0x3fff
     a10:	e34f4f20 	movt	r4, #65312	; 0xff20
     a14:	e5143fd7 	ldr	r3, [r4, #-4055]	; 0xfffff029
        screen_x =  vr        & 0xFFFF;
     a18:	e6ff6073 	uxth	r6, r3
     a1c:	e30a5ebc 	movw	r5, #44732	; 0xaebc
     a20:	e3405000 	movt	r5, #0
     a24:	e5856020 	str	r6, [r5, #32]
        screen_y = (vr >> 16) & 0xFFFF;
     a28:	e1a03823 	lsr	r3, r3, #16
     a2c:	e585303c 	str	r3, [r5, #60]	; 0x3c
        int db = get_data_bits(*rgb_status & 0x3F);
     a30:	e5140fef 	ldr	r0, [r4, #-4079]	; 0xfffff011
     a34:	e200003f 	and	r0, r0, #63	; 0x3f
     a38:	ebfffe16 	bl	298 <get_data_bits>
        res_offset = (screen_x == 160) ? 1 : 0;
     a3c:	e35600a0 	cmp	r6, #160	; 0xa0
     a40:	13a06000 	movne	r6, #0
     a44:	03a06001 	moveq	r6, #1
     a48:	e5856000 	str	r6, [r5]
        col_offset = (db == 8)        ? 1 : 0;
     a4c:	e3500008 	cmp	r0, #8
     a50:	13a00000 	movne	r0, #0
     a54:	03a00001 	moveq	r0, #1
     a58:	e5850004 	str	r0, [r5, #4]

        // Inicializa buffer de back para BUFFER1
        *(pixel_ctrl_ptr + 1) = BUFFER1;
     a5c:	e3a034c9 	mov	r3, #-922746880	; 0xc9000000
     a60:	e5043fdb 	str	r3, [r4, #-4059]	; 0xfffff025
    }

    // Tela de boot
    {
        int db = get_data_bits(*rgb_status & 0x3F);
     a64:	e5140fef 	ldr	r0, [r4, #-4079]	; 0xfffff011
     a68:	e200003f 	and	r0, r0, #63	; 0x3f
     a6c:	ebfffe09 	bl	298 <get_data_bits>
        short bg = resample_rgb(db, INTEL_BLUE);
     a70:	e30711c5 	movw	r1, #29125	; 0x71c5
     a74:	ebfffe5a 	bl	3e4 <resample_rgb>
     a78:	e1a05000 	mov	r5, r0
        video_box(0, 0, STANDARD_X, STANDARD_Y, 0);
     a7c:	e3a01000 	mov	r1, #0
     a80:	e58d1000 	str	r1, [sp]
     a84:	e1a00001 	mov	r0, r1
     a88:	e3a02d05 	mov	r2, #320	; 0x140
     a8c:	e3a030f0 	mov	r3, #240	; 0xf0
     a90:	ebfffe72 	bl	460 <video_box>
        video_text(35, 29, "Intel FPGA");
     a94:	e3a00023 	mov	r0, #35	; 0x23
     a98:	e3a0101d 	mov	r1, #29
     a9c:	e3092e1c 	movw	r2, #40476	; 0x9e1c
     aa0:	e3402000 	movt	r2, #0
     aa4:	ebfffe61 	bl	430 <video_text>
        video_text(32, 30, "Computer Systems");
     aa8:	e3a00020 	mov	r0, #32
     aac:	e3a0101e 	mov	r1, #30
     ab0:	e3092e28 	movw	r2, #40488	; 0x9e28
     ab4:	e3402000 	movt	r2, #0
     ab8:	ebfffe5c 	bl	430 <video_text>
        video_box(31*4, 28*4, 49*4-1, 32*4-1, bg);
     abc:	e6bf5075 	sxth	r5, r5
     ac0:	e58d5000 	str	r5, [sp]
     ac4:	e3a0007c 	mov	r0, #124	; 0x7c
     ac8:	e3a01070 	mov	r1, #112	; 0x70
     acc:	e3a020c3 	mov	r2, #195	; 0xc3
     ad0:	e3a0307f 	mov	r3, #127	; 0x7f
     ad4:	ebfffe61 	bl	460 <video_box>
        swap_buffers(); // mostra tela de boot
     ad8:	ebfffddf 	bl	25c <swap_buffers>
    }

    reset_game();
     adc:	ebffff8e 	bl	91c <reset_game>

    {
        int db = get_data_bits(*rgb_status & 0x3F);
     ae0:	e5140fef 	ldr	r0, [r4, #-4079]	; 0xfffff011
     ae4:	e200003f 	and	r0, r0, #63	; 0x3f
     ae8:	ebfffdea 	bl	298 <get_data_bits>
        draw_background(db);
     aec:	ebfffe90 	bl	534 <draw_background>
        swap_buffers();  // mostra fundo
     af0:	ebfffdd9 	bl	25c <swap_buffers>
    }

    while (1) {
        frame_count++;
     af4:	e30a5ebc 	movw	r5, #44732	; 0xaebc
     af8:	e3405000 	movt	r5, #0
        }

        // Limpa chão só (não limpa fundo)
        {
            int db = get_data_bits(*rgb_status & 0x3F);
            short grass = resample_rgb(db, 0x228B22);
     afc:	e3081b22 	movw	r1, #35618	; 0x8b22
     b00:	e3401022 	movt	r1, #34	; 0x22
     b04:	e58d1010 	str	r1, [sp, #16]
        swap_buffers();  // mostra fundo
    }

    while (1) {
        frame_count++;
        speed = 4 + frame_count / 500;
     b08:	e3042dd3 	movw	r2, #19923	; 0x4dd3
     b0c:	e3412062 	movt	r2, #4194	; 0x1062
     b10:	e58d2014 	str	r2, [sp, #20]
        }

        // Score
        {
            char buf[20];
            sprintf(buf, "Score: %2d", score/10);
     b14:	e3093e48 	movw	r3, #40520	; 0x9e48
     b18:	e3403000 	movt	r3, #0
     b1c:	e58d300c 	str	r3, [sp, #12]
     b20:	e3061667 	movw	r1, #26215	; 0x6667
     b24:	e3461666 	movt	r1, #26214	; 0x6666
     b28:	e58d1018 	str	r1, [sp, #24]
            score++;
            video_text(2, 0, buf);
        }

        swap_buffers(); // troca buffer pra exibir frame desenhado
		swap_buffers(); // troca buffer pra exibir frame desenhado
     b2c:	e3062640 	movw	r2, #26176	; 0x6640
     b30:	e3402103 	movt	r2, #259	; 0x103
     b34:	e58d201c 	str	r2, [sp, #28]
        draw_background(db);
        swap_buffers();  // mostra fundo
    }

    while (1) {
        frame_count++;
     b38:	e5954014 	ldr	r4, [r5, #20]
     b3c:	e2844001 	add	r4, r4, #1
     b40:	e5854014 	str	r4, [r5, #20]
        speed = 4 + frame_count / 500;
        if (speed > 10) speed = 10;

        keys = *key_ptr & 0x1;  // só Key0
     b44:	e3a03000 	mov	r3, #0
     b48:	e34f3f20 	movt	r3, #65312	; 0xff20
     b4c:	e5933050 	ldr	r3, [r3, #80]	; 0x50
     b50:	e2033001 	and	r3, r3, #1

        if (game_over) {
     b54:	e5d5201c 	ldrb	r2, [r5, #28]
     b58:	e3520000 	cmp	r2, #0
     b5c:	0a00000a 	beq	b8c <main+0x188>
            if (keys != 0) {
     b60:	e3530000 	cmp	r3, #0
     b64:	0a000006 	beq	b84 <main+0x180>
                reset_game();
     b68:	ebffff6b 	bl	91c <reset_game>
                int db = get_data_bits(*rgb_status & 0x3F);
     b6c:	e3033fff 	movw	r3, #16383	; 0x3fff
     b70:	e34f3f20 	movt	r3, #65312	; 0xff20
     b74:	e5130fef 	ldr	r0, [r3, #-4079]	; 0xfffff011
     b78:	e200003f 	and	r0, r0, #63	; 0x3f
     b7c:	ebfffdc5 	bl	298 <get_data_bits>
                draw_background(db);
     b80:	ebfffe6b 	bl	534 <draw_background>
            }
            swap_buffers();
     b84:	ebfffdb4 	bl	25c <swap_buffers>
            continue;
     b88:	eaffffea 	b	b38 <main+0x134>
        }

        // Pulo
        if (keys != 0 && !jumping && trex_y == GROUND_Y - TREX_HEIGHT) {
     b8c:	e3530000 	cmp	r3, #0
     b90:	0a000008 	beq	bb8 <main+0x1b4>
     b94:	e5d5300c 	ldrb	r3, [r5, #12]
     b98:	e3530000 	cmp	r3, #0
     b9c:	1a000005 	bne	bb8 <main+0x1b4>
     ba0:	e5953008 	ldr	r3, [r5, #8]
     ba4:	e35300d2 	cmp	r3, #210	; 0xd2
            jumping = true;
     ba8:	03a03001 	moveq	r3, #1
     bac:	05c5300c 	strbeq	r3, [r5, #12]
            jump_velocity = -10;
     bb0:	03e03009 	mvneq	r3, #9
     bb4:	05853010 	streq	r3, [r5, #16]
        }

        // Limpa chão só (não limpa fundo)
        {
            int db = get_data_bits(*rgb_status & 0x3F);
     bb8:	e3033fff 	movw	r3, #16383	; 0x3fff
     bbc:	e34f3f20 	movt	r3, #65312	; 0xff20
     bc0:	e5130fef 	ldr	r0, [r3, #-4079]	; 0xfffff011
     bc4:	e200003f 	and	r0, r0, #63	; 0x3f
     bc8:	ebfffdb2 	bl	298 <get_data_bits>
            short grass = resample_rgb(db, 0x228B22);
     bcc:	e59d1010 	ldr	r1, [sp, #16]
     bd0:	ebfffe03 	bl	3e4 <resample_rgb>
            video_box(0, GROUND_Y, STANDARD_X, GROUND_Y + 5, grass);
     bd4:	e6bf0070 	sxth	r0, r0
     bd8:	e58d0000 	str	r0, [sp]
     bdc:	e3a00000 	mov	r0, #0
     be0:	e3a010e6 	mov	r1, #230	; 0xe6
     be4:	e3a02d05 	mov	r2, #320	; 0x140
     be8:	e3a030eb 	mov	r3, #235	; 0xeb
     bec:	ebfffe1b 	bl	460 <video_box>
        }

        // Atualiza T-Rex
        if (jumping) {
     bf0:	e5d5300c 	ldrb	r3, [r5, #12]
     bf4:	e3530000 	cmp	r3, #0
     bf8:	0a000016 	beq	c58 <main+0x254>
            clear_trex(trex_y, get_data_bits(*rgb_status & 0x3F));
     bfc:	e5956008 	ldr	r6, [r5, #8]
     c00:	e3033fff 	movw	r3, #16383	; 0x3fff
     c04:	e34f3f20 	movt	r3, #65312	; 0xff20
     c08:	e5130fef 	ldr	r0, [r3, #-4079]	; 0xfffff011
     c0c:	e200003f 	and	r0, r0, #63	; 0x3f
     c10:	ebfffda0 	bl	298 <get_data_bits>
     c14:	e1a01000 	mov	r1, r0
     c18:	e1a00006 	mov	r0, r6
     c1c:	ebfffed7 	bl	780 <clear_trex>
            jump_velocity += gravity;
     c20:	e30a3080 	movw	r3, #41088	; 0xa080
     c24:	e3403000 	movt	r3, #0
     c28:	e5952010 	ldr	r2, [r5, #16]
     c2c:	e5933550 	ldr	r3, [r3, #1360]	; 0x550
     c30:	e0823003 	add	r3, r2, r3
     c34:	e5853010 	str	r3, [r5, #16]
            trex_y += jump_velocity;
     c38:	e5952008 	ldr	r2, [r5, #8]
     c3c:	e0833002 	add	r3, r3, r2
            if (trex_y >= GROUND_Y - TREX_HEIGHT) {
     c40:	e35300d1 	cmp	r3, #209	; 0xd1

        // Atualiza T-Rex
        if (jumping) {
            clear_trex(trex_y, get_data_bits(*rgb_status & 0x3F));
            jump_velocity += gravity;
            trex_y += jump_velocity;
     c44:	d5853008 	strle	r3, [r5, #8]
            if (trex_y >= GROUND_Y - TREX_HEIGHT) {
                trex_y = GROUND_Y - TREX_HEIGHT;
     c48:	c3a030d2 	movgt	r3, #210	; 0xd2
     c4c:	c5853008 	strgt	r3, [r5, #8]
                jumping = false;
     c50:	c3a03000 	movgt	r3, #0
     c54:	c5c5300c 	strbgt	r3, [r5, #12]
            }
        }
        draw_trex(trex_y, get_data_bits(*rgb_status & 0x3F));
     c58:	e5956008 	ldr	r6, [r5, #8]
     c5c:	e3033fff 	movw	r3, #16383	; 0x3fff
     c60:	e34f3f20 	movt	r3, #65312	; 0xff20
     c64:	e5130fef 	ldr	r0, [r3, #-4079]	; 0xfffff011
     c68:	e200003f 	and	r0, r0, #63	; 0x3f
     c6c:	ebfffd89 	bl	298 <get_data_bits>
     c70:	e1a01000 	mov	r1, r0
     c74:	e1a00006 	mov	r0, r6
     c78:	ebfffe90 	bl	6c0 <draw_trex>
        swap_buffers();  // mostra fundo
    }

    while (1) {
        frame_count++;
        speed = 4 + frame_count / 500;
     c7c:	e59d3014 	ldr	r3, [sp, #20]
     c80:	e0cb3493 	smull	r3, r11, r3, r4
     c84:	e1a04fc4 	asr	r4, r4, #31
     c88:	e064b2cb 	rsb	r11, r4, r11, asr #5
     c8c:	e28bb004 	add	r11, r11, #4
     c90:	e35b000a 	cmp	r11, #10
     c94:	a3a0b00a 	movge	r11, #10
     c98:	e3a06000 	mov	r6, #0
     c9c:	e1a04006 	mov	r4, r6
        }
        draw_trex(trex_y, get_data_bits(*rgb_status & 0x3F));
        
        // Cactos
        for (i = 0; i < MAX_CACTI; i++) {
            int db = get_data_bits(*rgb_status & 0x3F);
     ca0:	e3039fff 	movw	r9, #16383	; 0x3fff
     ca4:	e34f9f20 	movt	r9, #65312	; 0xff20
     ca8:	e5190fef 	ldr	r0, [r9, #-4079]	; 0xfffff011
     cac:	e200003f 	and	r0, r0, #63	; 0x3f
     cb0:	ebfffd78 	bl	298 <get_data_bits>
     cb4:	e1a08000 	mov	r8, r0
            clear_cactus(cactus_x[i], cactus_heights[i], db);
     cb8:	e2857024 	add	r7, r5, #36	; 0x24
     cbc:	e2853030 	add	r3, r5, #48	; 0x30
     cc0:	e7970004 	ldr	r0, [r7, r4]
     cc4:	e7931004 	ldr	r1, [r3, r4]
     cc8:	e1a02008 	mov	r2, r8
     ccc:	ebfffef4 	bl	8a4 <clear_cactus>

            cactus_x[i] -= speed;
     cd0:	e7943007 	ldr	r3, [r4, r7]
     cd4:	e06b3003 	rsb	r3, r11, r3
     cd8:	e7843007 	str	r3, [r4, r7]
            if (cactus_x[i] < -CACTUS_WIDTH - 2) {
     cdc:	e3730008 	cmn	r3, #8
     ce0:	aa000008 	bge	d08 <main+0x304>
                cactus_x[i] = screen_x + i * 80;
     ce4:	e5952020 	ldr	r2, [r5, #32]
     ce8:	e0862002 	add	r2, r6, r2
     cec:	e7842007 	str	r2, [r4, r7]
                if (cactus_heights[i] > TREX_HEIGHT)
     cf0:	e2853030 	add	r3, r5, #48	; 0x30
     cf4:	e7943003 	ldr	r3, [r4, r3]
     cf8:	e3530014 	cmp	r3, #20
                    cactus_heights[i] = TREX_HEIGHT;
     cfc:	c2853030 	addgt	r3, r5, #48	; 0x30
     d00:	c3a01014 	movgt	r1, #20
     d04:	c7841003 	strgt	r1, [r4, r3]
            }

            draw_cactus(cactus_x[i], cactus_heights[i], db);
     d08:	e285a024 	add	r10, r5, #36	; 0x24
     d0c:	e2857030 	add	r7, r5, #48	; 0x30
     d10:	e79a0004 	ldr	r0, [r10, r4]
     d14:	e7971004 	ldr	r1, [r7, r4]
     d18:	e1a02008 	mov	r2, r8
     d1c:	ebfffeb2 	bl	7ec <draw_cactus>

            if (check_collision(cactus_x[i], cactus_heights[i])) {
     d20:	e79a0004 	ldr	r0, [r10, r4]
     d24:	e7971004 	ldr	r1, [r7, r4]
     d28:	ebffff23 	bl	9bc <check_collision>
     d2c:	e3500000 	cmp	r0, #0
     d30:	0a000007 	beq	d54 <main+0x350>
                video_text(30, 10, "GAME OVER!");
     d34:	e3a0001e 	mov	r0, #30
     d38:	e3a0100a 	mov	r1, #10
     d3c:	e3092e3c 	movw	r2, #40508	; 0x9e3c
     d40:	e3402000 	movt	r2, #0
     d44:	ebfffdb9 	bl	430 <video_text>
                game_over = true;
     d48:	e3a03001 	mov	r3, #1
     d4c:	e5c5301c 	strb	r3, [r5, #28]
                break;
     d50:	ea000003 	b	d64 <main+0x360>
     d54:	e2844004 	add	r4, r4, #4
     d58:	e2866050 	add	r6, r6, #80	; 0x50
            }
        }
        draw_trex(trex_y, get_data_bits(*rgb_status & 0x3F));
        
        // Cactos
        for (i = 0; i < MAX_CACTI; i++) {
     d5c:	e354000c 	cmp	r4, #12
     d60:	1affffd0 	bne	ca8 <main+0x2a4>
        }

        // Score
        {
            char buf[20];
            sprintf(buf, "Score: %2d", score/10);
     d64:	e5953018 	ldr	r3, [r5, #24]
     d68:	e59d1018 	ldr	r1, [sp, #24]
     d6c:	e0c21391 	smull	r1, r2, r1, r3
     d70:	e1a03fc3 	asr	r3, r3, #31
     d74:	e28d0024 	add	r0, sp, #36	; 0x24
     d78:	e59d100c 	ldr	r1, [sp, #12]
     d7c:	e0632142 	rsb	r2, r3, r2, asr #2
     d80:	eb00008e 	bl	fc0 <sprintf>
            score++;
     d84:	e5953018 	ldr	r3, [r5, #24]
     d88:	e2833001 	add	r3, r3, #1
     d8c:	e5853018 	str	r3, [r5, #24]
            video_text(2, 0, buf);
     d90:	e3a00002 	mov	r0, #2
     d94:	e3a01000 	mov	r1, #0
     d98:	e28d2024 	add	r2, sp, #36	; 0x24
     d9c:	ebfffda3 	bl	430 <video_text>
        }

        swap_buffers(); // troca buffer pra exibir frame desenhado
     da0:	ebfffd2d 	bl	25c <swap_buffers>
		swap_buffers(); // troca buffer pra exibir frame desenhado
     da4:	ebfffd2c 	bl	25c <swap_buffers>
     da8:	e59d301c 	ldr	r3, [sp, #28]
        // Delay
        for (d = 0; d < 17000000; d++);
     dac:	e2533001 	subs	r3, r3, #1
     db0:	1afffffd 	bne	dac <main+0x3a8>
     db4:	eaffff5f 	b	b38 <main+0x134>

00000db8 <__aeabi_idiv>:
     db8:	e3510000 	cmp	r1, #0
     dbc:	0a000043 	beq	ed0 <.divsi3_skip_div0_test+0x110>

00000dc0 <.divsi3_skip_div0_test>:
     dc0:	e020c001 	eor	r12, r0, r1
     dc4:	42611000 	rsbmi	r1, r1, #0
     dc8:	e2512001 	subs	r2, r1, #1
     dcc:	0a000027 	beq	e70 <.divsi3_skip_div0_test+0xb0>
     dd0:	e1b03000 	movs	r3, r0
     dd4:	42603000 	rsbmi	r3, r0, #0
     dd8:	e1530001 	cmp	r3, r1
     ddc:	9a000026 	bls	e7c <.divsi3_skip_div0_test+0xbc>
     de0:	e1110002 	tst	r1, r2
     de4:	0a000028 	beq	e8c <.divsi3_skip_div0_test+0xcc>
     de8:	e311020e 	tst	r1, #-536870912	; 0xe0000000
     dec:	01a01181 	lsleq	r1, r1, #3
     df0:	03a02008 	moveq	r2, #8
     df4:	13a02001 	movne	r2, #1
     df8:	e3510201 	cmp	r1, #268435456	; 0x10000000
     dfc:	31510003 	cmpcc	r1, r3
     e00:	31a01201 	lslcc	r1, r1, #4
     e04:	31a02202 	lslcc	r2, r2, #4
     e08:	3afffffa 	bcc	df8 <.divsi3_skip_div0_test+0x38>
     e0c:	e3510102 	cmp	r1, #-2147483648	; 0x80000000
     e10:	31510003 	cmpcc	r1, r3
     e14:	31a01081 	lslcc	r1, r1, #1
     e18:	31a02082 	lslcc	r2, r2, #1
     e1c:	3afffffa 	bcc	e0c <.divsi3_skip_div0_test+0x4c>
     e20:	e3a00000 	mov	r0, #0
     e24:	e1530001 	cmp	r3, r1
     e28:	20433001 	subcs	r3, r3, r1
     e2c:	21800002 	orrcs	r0, r0, r2
     e30:	e15300a1 	cmp	r3, r1, lsr #1
     e34:	204330a1 	subcs	r3, r3, r1, lsr #1
     e38:	218000a2 	orrcs	r0, r0, r2, lsr #1
     e3c:	e1530121 	cmp	r3, r1, lsr #2
     e40:	20433121 	subcs	r3, r3, r1, lsr #2
     e44:	21800122 	orrcs	r0, r0, r2, lsr #2
     e48:	e15301a1 	cmp	r3, r1, lsr #3
     e4c:	204331a1 	subcs	r3, r3, r1, lsr #3
     e50:	218001a2 	orrcs	r0, r0, r2, lsr #3
     e54:	e3530000 	cmp	r3, #0
     e58:	11b02222 	lsrsne	r2, r2, #4
     e5c:	11a01221 	lsrne	r1, r1, #4
     e60:	1affffef 	bne	e24 <.divsi3_skip_div0_test+0x64>
     e64:	e35c0000 	cmp	r12, #0
     e68:	42600000 	rsbmi	r0, r0, #0
     e6c:	e12fff1e 	bx	lr
     e70:	e13c0000 	teq	r12, r0
     e74:	42600000 	rsbmi	r0, r0, #0
     e78:	e12fff1e 	bx	lr
     e7c:	33a00000 	movcc	r0, #0
     e80:	01a00fcc 	asreq	r0, r12, #31
     e84:	03800001 	orreq	r0, r0, #1
     e88:	e12fff1e 	bx	lr
     e8c:	e3510801 	cmp	r1, #65536	; 0x10000
     e90:	21a01821 	lsrcs	r1, r1, #16
     e94:	23a02010 	movcs	r2, #16
     e98:	33a02000 	movcc	r2, #0
     e9c:	e3510c01 	cmp	r1, #256	; 0x100
     ea0:	21a01421 	lsrcs	r1, r1, #8
     ea4:	22822008 	addcs	r2, r2, #8
     ea8:	e3510010 	cmp	r1, #16
     eac:	21a01221 	lsrcs	r1, r1, #4
     eb0:	22822004 	addcs	r2, r2, #4
     eb4:	e3510004 	cmp	r1, #4
     eb8:	82822003 	addhi	r2, r2, #3
     ebc:	908220a1 	addls	r2, r2, r1, lsr #1
     ec0:	e35c0000 	cmp	r12, #0
     ec4:	e1a00233 	lsr	r0, r3, r2
     ec8:	42600000 	rsbmi	r0, r0, #0
     ecc:	e12fff1e 	bx	lr
     ed0:	e3500000 	cmp	r0, #0
     ed4:	c3e00102 	mvngt	r0, #-2147483648	; 0x80000000
     ed8:	b3a00102 	movlt	r0, #-2147483648	; 0x80000000
     edc:	ea000007 	b	f00 <__aeabi_idiv0>

00000ee0 <__aeabi_idivmod>:
     ee0:	e3510000 	cmp	r1, #0
     ee4:	0afffff9 	beq	ed0 <.divsi3_skip_div0_test+0x110>
     ee8:	e92d4003 	push	{r0, r1, lr}
     eec:	ebffffb3 	bl	dc0 <.divsi3_skip_div0_test>
     ef0:	e8bd4006 	pop	{r1, r2, lr}
     ef4:	e0030092 	mul	r3, r2, r0
     ef8:	e0411003 	sub	r1, r1, r3
     efc:	e12fff1e 	bx	lr

00000f00 <__aeabi_idiv0>:
     f00:	e12fff1e 	bx	lr

00000f04 <atexit>:
     f04:	e1a01000 	mov	r1, r0
     f08:	e3a00000 	mov	r0, #0
     f0c:	e92d4008 	push	{r3, lr}
     f10:	e1a02000 	mov	r2, r0
     f14:	e1a03000 	mov	r3, r0
     f18:	eb000824 	bl	2fb0 <__register_exitproc>
     f1c:	e8bd4008 	pop	{r3, lr}
     f20:	e12fff1e 	bx	lr

00000f24 <exit>:
     f24:	e92d4008 	push	{r3, lr}
     f28:	e3a01000 	mov	r1, #0
     f2c:	e1a04000 	mov	r4, r0
     f30:	eb00085b 	bl	30a4 <__call_exitprocs>
     f34:	e59f3018 	ldr	r3, [pc, #24]	; f54 <exit+0x30>
     f38:	e5930000 	ldr	r0, [r3]
     f3c:	e590303c 	ldr	r3, [r0, #60]	; 0x3c
     f40:	e3530000 	cmp	r3, #0
     f44:	11a0e00f 	movne	lr, pc
     f48:	112fff13 	bxne	r3
     f4c:	e1a00004 	mov	r0, r4
     f50:	eb002349 	bl	9c7c <_exit>
     f54:	00009e54 	.word	0x00009e54

00000f58 <_sprintf_r>:
     f58:	e92d000c 	push	{r2, r3}
     f5c:	e92d4030 	push	{r4, r5, lr}
     f60:	e24dd074 	sub	sp, sp, #116	; 0x74
     f64:	e28dc084 	add	r12, sp, #132	; 0x84
     f68:	e3e0e102 	mvn	lr, #-2147483648	; 0x80000000
     f6c:	e1a04001 	mov	r4, r1
     f70:	e59d2080 	ldr	r2, [sp, #128]	; 0x80
     f74:	e1a0300c 	mov	r3, r12
     f78:	e58de010 	str	lr, [sp, #16]
     f7c:	e58de01c 	str	lr, [sp, #28]
     f80:	e28d1008 	add	r1, sp, #8
     f84:	e3e0e000 	mvn	lr, #0
     f88:	e3a05f82 	mov	r5, #520	; 0x208
     f8c:	e1cd51b4 	strh	r5, [sp, #20]
     f90:	e58d4008 	str	r4, [sp, #8]
     f94:	e58d4018 	str	r4, [sp, #24]
     f98:	e1cde1b6 	strh	lr, [sp, #22]
     f9c:	e58dc004 	str	r12, [sp, #4]
     fa0:	eb000023 	bl	1034 <_svfprintf_r>
     fa4:	e59d3008 	ldr	r3, [sp, #8]
     fa8:	e3a02000 	mov	r2, #0
     fac:	e5c32000 	strb	r2, [r3]
     fb0:	e28dd074 	add	sp, sp, #116	; 0x74
     fb4:	e8bd4030 	pop	{r4, r5, lr}
     fb8:	e28dd008 	add	sp, sp, #8
     fbc:	e12fff1e 	bx	lr

00000fc0 <sprintf>:
     fc0:	e92d000e 	push	{r1, r2, r3}
     fc4:	e92d4030 	push	{r4, r5, lr}
     fc8:	e59f3060 	ldr	r3, [pc, #96]	; 1030 <sprintf+0x70>
     fcc:	e24dd070 	sub	sp, sp, #112	; 0x70
     fd0:	e28dc080 	add	r12, sp, #128	; 0x80
     fd4:	e3e0e102 	mvn	lr, #-2147483648	; 0x80000000
     fd8:	e1a04000 	mov	r4, r0
     fdc:	e59d207c 	ldr	r2, [sp, #124]	; 0x7c
     fe0:	e58de010 	str	lr, [sp, #16]
     fe4:	e58de01c 	str	lr, [sp, #28]
     fe8:	e5930000 	ldr	r0, [r3]
     fec:	e3e0e000 	mvn	lr, #0
     ff0:	e1a0300c 	mov	r3, r12
     ff4:	e28d1008 	add	r1, sp, #8
     ff8:	e3a05f82 	mov	r5, #520	; 0x208
     ffc:	e1cd51b4 	strh	r5, [sp, #20]
    1000:	e58d4008 	str	r4, [sp, #8]
    1004:	e58d4018 	str	r4, [sp, #24]
    1008:	e1cde1b6 	strh	lr, [sp, #22]
    100c:	e58dc004 	str	r12, [sp, #4]
    1010:	eb000007 	bl	1034 <_svfprintf_r>
    1014:	e59d3008 	ldr	r3, [sp, #8]
    1018:	e3a02000 	mov	r2, #0
    101c:	e5c32000 	strb	r2, [r3]
    1020:	e28dd070 	add	sp, sp, #112	; 0x70
    1024:	e8bd4030 	pop	{r4, r5, lr}
    1028:	e28dd00c 	add	sp, sp, #12
    102c:	e12fff1e 	bx	lr
    1030:	0000a5d8 	.word	0x0000a5d8

00001034 <_svfprintf_r>:
    1034:	e92d4ff0 	push	{r4, r5, r6, r7, r8, r9, r10, r11, lr}
    1038:	e24ddf45 	sub	sp, sp, #276	; 0x114
    103c:	e58d1030 	str	r1, [sp, #48]	; 0x30
    1040:	e58d3048 	str	r3, [sp, #72]	; 0x48
    1044:	e1a04002 	mov	r4, r2
    1048:	e58d0040 	str	r0, [sp, #64]	; 0x40
    104c:	eb000edf 	bl	4bd0 <_localeconv_r>
    1050:	e5900000 	ldr	r0, [r0]
    1054:	e58d0058 	str	r0, [sp, #88]	; 0x58
    1058:	eb00157b 	bl	664c <strlen>
    105c:	e59dc030 	ldr	r12, [sp, #48]	; 0x30
    1060:	e1dc30bc 	ldrh	r3, [r12, #12]
    1064:	e58d005c 	str	r0, [sp, #92]	; 0x5c
    1068:	e3a01000 	mov	r1, #0
    106c:	e3a00000 	mov	r0, #0
    1070:	e3130080 	tst	r3, #128	; 0x80
    1074:	e58d0060 	str	r0, [sp, #96]	; 0x60
    1078:	e58d1064 	str	r1, [sp, #100]	; 0x64
    107c:	0a000002 	beq	108c <_svfprintf_r+0x58>
    1080:	e59c3010 	ldr	r3, [r12, #16]
    1084:	e3530000 	cmp	r3, #0
    1088:	0a0006bb 	beq	2b7c <_svfprintf_r+0x1b48>
    108c:	e3a03000 	mov	r3, #0
    1090:	e28dc0d0 	add	r12, sp, #208	; 0xd0
    1094:	e1a0b004 	mov	r11, r4
    1098:	e58dc01c 	str	r12, [sp, #28]
    109c:	e58d304c 	str	r3, [sp, #76]	; 0x4c
    10a0:	e58dc09c 	str	r12, [sp, #156]	; 0x9c
    10a4:	e58d30a4 	str	r3, [sp, #164]	; 0xa4
    10a8:	e58d30a0 	str	r3, [sp, #160]	; 0xa0
    10ac:	e58d306c 	str	r3, [sp, #108]	; 0x6c
    10b0:	e58d3068 	str	r3, [sp, #104]	; 0x68
    10b4:	e58d302c 	str	r3, [sp, #44]	; 0x2c
    10b8:	e58db024 	str	r11, [sp, #36]	; 0x24
    10bc:	e1a04003 	mov	r4, r3
    10c0:	e1a0a00c 	mov	r10, r12
    10c4:	e59dc024 	ldr	r12, [sp, #36]	; 0x24
    10c8:	e5dc3000 	ldrb	r3, [r12]
    10cc:	e3530025 	cmp	r3, #37	; 0x25
    10d0:	13530000 	cmpne	r3, #0
    10d4:	0a0000a5 	beq	1370 <_svfprintf_r+0x33c>
    10d8:	e28c3001 	add	r3, r12, #1
    10dc:	e1a06003 	mov	r6, r3
    10e0:	e5d33000 	ldrb	r3, [r3]
    10e4:	e3530025 	cmp	r3, #37	; 0x25
    10e8:	13530000 	cmpne	r3, #0
    10ec:	e2863001 	add	r3, r6, #1
    10f0:	1afffff9 	bne	10dc <_svfprintf_r+0xa8>
    10f4:	e59d4024 	ldr	r4, [sp, #36]	; 0x24
    10f8:	e0567004 	subs	r7, r6, r4
    10fc:	0a00000e 	beq	113c <_svfprintf_r+0x108>
    1100:	e28d40a0 	add	r4, sp, #160	; 0xa0
    1104:	e8940030 	ldm	r4, {r4, r5}
    1108:	e59dc024 	ldr	r12, [sp, #36]	; 0x24
    110c:	e2844001 	add	r4, r4, #1
    1110:	e0855007 	add	r5, r5, r7
    1114:	e3540007 	cmp	r4, #7
    1118:	e58ac000 	str	r12, [r10]
    111c:	e58a7004 	str	r7, [r10, #4]
    1120:	e58d50a4 	str	r5, [sp, #164]	; 0xa4
    1124:	e58d40a0 	str	r4, [sp, #160]	; 0xa0
    1128:	d28aa008 	addle	r10, r10, #8
    112c:	ca000077 	bgt	1310 <_svfprintf_r+0x2dc>
    1130:	e59d402c 	ldr	r4, [sp, #44]	; 0x2c
    1134:	e0844007 	add	r4, r4, r7
    1138:	e58d402c 	str	r4, [sp, #44]	; 0x2c
    113c:	e5d63000 	ldrb	r3, [r6]
    1140:	e3530000 	cmp	r3, #0
    1144:	0a000079 	beq	1330 <_svfprintf_r+0x2fc>
    1148:	e286c001 	add	r12, r6, #1
    114c:	e3a03000 	mov	r3, #0
    1150:	e58dc024 	str	r12, [sp, #36]	; 0x24
    1154:	e58d3034 	str	r3, [sp, #52]	; 0x34
    1158:	e5cd307b 	strb	r3, [sp, #123]	; 0x7b
    115c:	e5d67001 	ldrb	r7, [r6, #1]
    1160:	e58d3020 	str	r3, [sp, #32]
    1164:	e3e06000 	mvn	r6, #0
    1168:	e3a01020 	mov	r1, #32
    116c:	e3a0202b 	mov	r2, #43	; 0x2b
    1170:	e1a0300c 	mov	r3, r12
    1174:	e2833001 	add	r3, r3, #1
    1178:	e2470020 	sub	r0, r7, #32
    117c:	e3500058 	cmp	r0, #88	; 0x58
    1180:	979ff100 	ldrls	pc, [pc, r0, lsl #2]
    1184:	ea00022d 	b	1a40 <_svfprintf_r+0xa0c>
    1188:	00001a6c 	.word	0x00001a6c
    118c:	00001a40 	.word	0x00001a40
    1190:	00001a40 	.word	0x00001a40
    1194:	00001a84 	.word	0x00001a84
    1198:	00001a40 	.word	0x00001a40
    119c:	00001a40 	.word	0x00001a40
    11a0:	00001a40 	.word	0x00001a40
    11a4:	00001a40 	.word	0x00001a40
    11a8:	00001a40 	.word	0x00001a40
    11ac:	00001a40 	.word	0x00001a40
    11b0:	00001a98 	.word	0x00001a98
    11b4:	00001378 	.word	0x00001378
    11b8:	00001a40 	.word	0x00001a40
    11bc:	000012fc 	.word	0x000012fc
    11c0:	00001384 	.word	0x00001384
    11c4:	00001a40 	.word	0x00001a40
    11c8:	000013d0 	.word	0x000013d0
    11cc:	000013e4 	.word	0x000013e4
    11d0:	000013e4 	.word	0x000013e4
    11d4:	000013e4 	.word	0x000013e4
    11d8:	000013e4 	.word	0x000013e4
    11dc:	000013e4 	.word	0x000013e4
    11e0:	000013e4 	.word	0x000013e4
    11e4:	000013e4 	.word	0x000013e4
    11e8:	000013e4 	.word	0x000013e4
    11ec:	000013e4 	.word	0x000013e4
    11f0:	00001a40 	.word	0x00001a40
    11f4:	00001a40 	.word	0x00001a40
    11f8:	00001a40 	.word	0x00001a40
    11fc:	00001a40 	.word	0x00001a40
    1200:	00001a40 	.word	0x00001a40
    1204:	00001a40 	.word	0x00001a40
    1208:	00001a40 	.word	0x00001a40
    120c:	00001a40 	.word	0x00001a40
    1210:	00001a40 	.word	0x00001a40
    1214:	00001a40 	.word	0x00001a40
    1218:	00001414 	.word	0x00001414
    121c:	00001658 	.word	0x00001658
    1220:	00001a40 	.word	0x00001a40
    1224:	00001658 	.word	0x00001658
    1228:	00001a40 	.word	0x00001a40
    122c:	00001a40 	.word	0x00001a40
    1230:	00001a40 	.word	0x00001a40
    1234:	00001a40 	.word	0x00001a40
    1238:	00001710 	.word	0x00001710
    123c:	00001a40 	.word	0x00001a40
    1240:	00001a40 	.word	0x00001a40
    1244:	00001ac0 	.word	0x00001ac0
    1248:	00001a40 	.word	0x00001a40
    124c:	00001a40 	.word	0x00001a40
    1250:	00001a40 	.word	0x00001a40
    1254:	00001a40 	.word	0x00001a40
    1258:	00001a40 	.word	0x00001a40
    125c:	00001b0c 	.word	0x00001b0c
    1260:	00001a40 	.word	0x00001a40
    1264:	00001a40 	.word	0x00001a40
    1268:	00001724 	.word	0x00001724
    126c:	00001a40 	.word	0x00001a40
    1270:	00001a40 	.word	0x00001a40
    1274:	00001a40 	.word	0x00001a40
    1278:	00001a40 	.word	0x00001a40
    127c:	00001a40 	.word	0x00001a40
    1280:	00001a40 	.word	0x00001a40
    1284:	00001a40 	.word	0x00001a40
    1288:	00001a40 	.word	0x00001a40
    128c:	00001a40 	.word	0x00001a40
    1290:	00001a40 	.word	0x00001a40
    1294:	0000177c 	.word	0x0000177c
    1298:	000017c0 	.word	0x000017c0
    129c:	00001658 	.word	0x00001658
    12a0:	00001658 	.word	0x00001658
    12a4:	00001658 	.word	0x00001658
    12a8:	0000182c 	.word	0x0000182c
    12ac:	000017c0 	.word	0x000017c0
    12b0:	00001a40 	.word	0x00001a40
    12b4:	00001a40 	.word	0x00001a40
    12b8:	00001840 	.word	0x00001840
    12bc:	00001a40 	.word	0x00001a40
    12c0:	00001870 	.word	0x00001870
    12c4:	000018a4 	.word	0x000018a4
    12c8:	000018e0 	.word	0x000018e0
    12cc:	00001930 	.word	0x00001930
    12d0:	00001a40 	.word	0x00001a40
    12d4:	00001944 	.word	0x00001944
    12d8:	00001a40 	.word	0x00001a40
    12dc:	000019b8 	.word	0x000019b8
    12e0:	00001a40 	.word	0x00001a40
    12e4:	00001a40 	.word	0x00001a40
    12e8:	000019f4 	.word	0x000019f4
    12ec:	e59dc034 	ldr	r12, [sp, #52]	; 0x34
    12f0:	e26cc000 	rsb	r12, r12, #0
    12f4:	e58dc034 	str	r12, [sp, #52]	; 0x34
    12f8:	e58d0048 	str	r0, [sp, #72]	; 0x48
    12fc:	e59d4020 	ldr	r4, [sp, #32]
    1300:	e3844004 	orr	r4, r4, #4
    1304:	e58d4020 	str	r4, [sp, #32]
    1308:	e5d37000 	ldrb	r7, [r3]
    130c:	eaffff98 	b	1174 <_svfprintf_r+0x140>
    1310:	e59d0040 	ldr	r0, [sp, #64]	; 0x40
    1314:	e59d1030 	ldr	r1, [sp, #48]	; 0x30
    1318:	e28d209c 	add	r2, sp, #156	; 0x9c
    131c:	eb0014e2 	bl	66ac <__ssprint_r>
    1320:	e3500000 	cmp	r0, #0
    1324:	1a000007 	bne	1348 <_svfprintf_r+0x314>
    1328:	e28da0d0 	add	r10, sp, #208	; 0xd0
    132c:	eaffff7f 	b	1130 <_svfprintf_r+0xfc>
    1330:	e59d30a4 	ldr	r3, [sp, #164]	; 0xa4
    1334:	e3530000 	cmp	r3, #0
    1338:	159d0040 	ldrne	r0, [sp, #64]	; 0x40
    133c:	159d1030 	ldrne	r1, [sp, #48]	; 0x30
    1340:	128d209c 	addne	r2, sp, #156	; 0x9c
    1344:	1b0014d8 	blne	66ac <__ssprint_r>
    1348:	e59d4030 	ldr	r4, [sp, #48]	; 0x30
    134c:	e1d430bc 	ldrh	r3, [r4, #12]
    1350:	e59dc02c 	ldr	r12, [sp, #44]	; 0x2c
    1354:	e3130040 	tst	r3, #64	; 0x40
    1358:	13e0c000 	mvnne	r12, #0
    135c:	e58dc02c 	str	r12, [sp, #44]	; 0x2c
    1360:	e59d002c 	ldr	r0, [sp, #44]	; 0x2c
    1364:	e28ddf45 	add	sp, sp, #276	; 0x114
    1368:	e8bd4ff0 	pop	{r4, r5, r6, r7, r8, r9, r10, r11, lr}
    136c:	e12fff1e 	bx	lr
    1370:	e59d6024 	ldr	r6, [sp, #36]	; 0x24
    1374:	eaffff70 	b	113c <_svfprintf_r+0x108>
    1378:	e5cd207b 	strb	r2, [sp, #123]	; 0x7b
    137c:	e5d37000 	ldrb	r7, [r3]
    1380:	eaffff7b 	b	1174 <_svfprintf_r+0x140>
    1384:	e1a0c003 	mov	r12, r3
    1388:	e4dc7001 	ldrb	r7, [r12], #1
    138c:	e357002a 	cmp	r7, #42	; 0x2a
    1390:	0a0006de 	beq	2f10 <_svfprintf_r+0x1edc>
    1394:	e2470030 	sub	r0, r7, #48	; 0x30
    1398:	e3500009 	cmp	r0, #9
    139c:	81a0300c 	movhi	r3, r12
    13a0:	83a06000 	movhi	r6, #0
    13a4:	8affff73 	bhi	1178 <_svfprintf_r+0x144>
    13a8:	e3a06000 	mov	r6, #0
    13ac:	e4dc7001 	ldrb	r7, [r12], #1
    13b0:	e0866106 	add	r6, r6, r6, lsl #2
    13b4:	e0806086 	add	r6, r0, r6, lsl #1
    13b8:	e2470030 	sub	r0, r7, #48	; 0x30
    13bc:	e3500009 	cmp	r0, #9
    13c0:	e1a0300c 	mov	r3, r12
    13c4:	9afffff8 	bls	13ac <_svfprintf_r+0x378>
    13c8:	e1866fc6 	orr	r6, r6, r6, asr #31
    13cc:	eaffff69 	b	1178 <_svfprintf_r+0x144>
    13d0:	e59dc020 	ldr	r12, [sp, #32]
    13d4:	e38cc080 	orr	r12, r12, #128	; 0x80
    13d8:	e58dc020 	str	r12, [sp, #32]
    13dc:	e5d37000 	ldrb	r7, [r3]
    13e0:	eaffff63 	b	1174 <_svfprintf_r+0x140>
    13e4:	e1a0c003 	mov	r12, r3
    13e8:	e3a00000 	mov	r0, #0
    13ec:	e2473030 	sub	r3, r7, #48	; 0x30
    13f0:	e4dc7001 	ldrb	r7, [r12], #1
    13f4:	e2474030 	sub	r4, r7, #48	; 0x30
    13f8:	e0800100 	add	r0, r0, r0, lsl #2
    13fc:	e3540009 	cmp	r4, #9
    1400:	e0830080 	add	r0, r3, r0, lsl #1
    1404:	e1a0300c 	mov	r3, r12
    1408:	9afffff7 	bls	13ec <_svfprintf_r+0x3b8>
    140c:	e58d0034 	str	r0, [sp, #52]	; 0x34
    1410:	eaffff58 	b	1178 <_svfprintf_r+0x144>
    1414:	e59dc020 	ldr	r12, [sp, #32]
    1418:	e38cc010 	orr	r12, r12, #16
    141c:	e58dc020 	str	r12, [sp, #32]
    1420:	e59d4020 	ldr	r4, [sp, #32]
    1424:	e3140020 	tst	r4, #32
    1428:	e58d3024 	str	r3, [sp, #36]	; 0x24
    142c:	0a0000e7 	beq	17d0 <_svfprintf_r+0x79c>
    1430:	e59dc048 	ldr	r12, [sp, #72]	; 0x48
    1434:	e28c1007 	add	r1, r12, #7
    1438:	e3c11007 	bic	r1, r1, #7
    143c:	e891000c 	ldm	r1, {r2, r3}
    1440:	e2811008 	add	r1, r1, #8
    1444:	e58d1048 	str	r1, [sp, #72]	; 0x48
    1448:	e1a04002 	mov	r4, r2
    144c:	e1a05003 	mov	r5, r3
    1450:	e3520000 	cmp	r2, #0
    1454:	e2d30000 	sbcs	r0, r3, #0
    1458:	ba0000ea 	blt	1808 <_svfprintf_r+0x7d4>
    145c:	e1941005 	orrs	r1, r4, r5
    1460:	03a02000 	moveq	r2, #0
    1464:	13a02001 	movne	r2, #1
    1468:	e3a03001 	mov	r3, #1
    146c:	e3560000 	cmp	r6, #0
    1470:	a59dc020 	ldrge	r12, [sp, #32]
    1474:	a3ccc080 	bicge	r12, r12, #128	; 0x80
    1478:	a58dc020 	strge	r12, [sp, #32]
    147c:	e3560000 	cmp	r6, #0
    1480:	13822001 	orrne	r2, r2, #1
    1484:	e3520000 	cmp	r2, #0
    1488:	0a0002ac 	beq	1f40 <_svfprintf_r+0xf0c>
    148c:	e3530001 	cmp	r3, #1
    1490:	0a00039d 	beq	230c <_svfprintf_r+0x12d8>
    1494:	e3530002 	cmp	r3, #2
    1498:	e28dc0cf 	add	r12, sp, #207	; 0xcf
    149c:	0a000339 	beq	2188 <_svfprintf_r+0x1154>
    14a0:	e3a00007 	mov	r0, #7
    14a4:	e1a081a4 	lsr	r8, r4, #3
    14a8:	e1888e85 	orr	r8, r8, r5, lsl #29
    14ac:	e0042000 	and	r2, r4, r0
    14b0:	e1a031a5 	lsr	r3, r5, #3
    14b4:	e1a04008 	mov	r4, r8
    14b8:	e2822030 	add	r2, r2, #48	; 0x30
    14bc:	e1a05003 	mov	r5, r3
    14c0:	e20220ff 	and	r2, r2, #255	; 0xff
    14c4:	e1943005 	orrs	r3, r4, r5
    14c8:	e1a0800c 	mov	r8, r12
    14cc:	e5cc2000 	strb	r2, [r12]
    14d0:	e24cc001 	sub	r12, r12, #1
    14d4:	1afffff2 	bne	14a4 <_svfprintf_r+0x470>
    14d8:	e59d4020 	ldr	r4, [sp, #32]
    14dc:	e3140001 	tst	r4, #1
    14e0:	e1a03008 	mov	r3, r8
    14e4:	0a00038e 	beq	2324 <_svfprintf_r+0x12f0>
    14e8:	e3520030 	cmp	r2, #48	; 0x30
    14ec:	0a000334 	beq	21c4 <_svfprintf_r+0x1190>
    14f0:	e59d401c 	ldr	r4, [sp, #28]
    14f4:	e3a02030 	mov	r2, #48	; 0x30
    14f8:	e06c4004 	rsb	r4, r12, r4
    14fc:	e5432001 	strb	r2, [r3, #-1]
    1500:	e58d4038 	str	r4, [sp, #56]	; 0x38
    1504:	e1a0800c 	mov	r8, r12
    1508:	e59d4038 	ldr	r4, [sp, #56]	; 0x38
    150c:	e3a0c000 	mov	r12, #0
    1510:	e1540006 	cmp	r4, r6
    1514:	b1a04006 	movlt	r4, r6
    1518:	e58d4028 	str	r4, [sp, #40]	; 0x28
    151c:	e5dd307b 	ldrb	r3, [sp, #123]	; 0x7b
    1520:	e58d6044 	str	r6, [sp, #68]	; 0x44
    1524:	e58dc054 	str	r12, [sp, #84]	; 0x54
    1528:	e3530000 	cmp	r3, #0
    152c:	0a000002 	beq	153c <_svfprintf_r+0x508>
    1530:	e59d4028 	ldr	r4, [sp, #40]	; 0x28
    1534:	e2844001 	add	r4, r4, #1
    1538:	e58d4028 	str	r4, [sp, #40]	; 0x28
    153c:	e59dc020 	ldr	r12, [sp, #32]
    1540:	e21cc002 	ands	r12, r12, #2
    1544:	159d4028 	ldrne	r4, [sp, #40]	; 0x28
    1548:	e58dc03c 	str	r12, [sp, #60]	; 0x3c
    154c:	e59dc020 	ldr	r12, [sp, #32]
    1550:	12844002 	addne	r4, r4, #2
    1554:	158d4028 	strne	r4, [sp, #40]	; 0x28
    1558:	e21cc084 	ands	r12, r12, #132	; 0x84
    155c:	e58dc050 	str	r12, [sp, #80]	; 0x50
    1560:	1a00017d 	bne	1b5c <_svfprintf_r+0xb28>
    1564:	e59d4034 	ldr	r4, [sp, #52]	; 0x34
    1568:	e59dc028 	ldr	r12, [sp, #40]	; 0x28
    156c:	e06c6004 	rsb	r6, r12, r4
    1570:	e3560000 	cmp	r6, #0
    1574:	da000178 	ble	1b5c <_svfprintf_r+0xb28>
    1578:	e28d40a0 	add	r4, sp, #160	; 0xa0
    157c:	e3560010 	cmp	r6, #16
    1580:	e8940030 	ldm	r4, {r4, r5}
    1584:	e59f9fc8 	ldr	r9, [pc, #4040]	; 2554 <_svfprintf_r+0x1520>
    1588:	da000020 	ble	1610 <_svfprintf_r+0x5dc>
    158c:	e58d7070 	str	r7, [sp, #112]	; 0x70
    1590:	e58d8074 	str	r8, [sp, #116]	; 0x74
    1594:	e3a0b010 	mov	r11, #16
    1598:	e1a08006 	mov	r8, r6
    159c:	e59d7030 	ldr	r7, [sp, #48]	; 0x30
    15a0:	e59d6040 	ldr	r6, [sp, #64]	; 0x40
    15a4:	ea000002 	b	15b4 <_svfprintf_r+0x580>
    15a8:	e2488010 	sub	r8, r8, #16
    15ac:	e3580010 	cmp	r8, #16
    15b0:	da000013 	ble	1604 <_svfprintf_r+0x5d0>
    15b4:	e2844001 	add	r4, r4, #1
    15b8:	e3540007 	cmp	r4, #7
    15bc:	e2855010 	add	r5, r5, #16
    15c0:	e88a0a00 	stm	r10, {r9, r11}
    15c4:	e58d50a4 	str	r5, [sp, #164]	; 0xa4
    15c8:	e58d40a0 	str	r4, [sp, #160]	; 0xa0
    15cc:	d28aa008 	addle	r10, r10, #8
    15d0:	dafffff4 	ble	15a8 <_svfprintf_r+0x574>
    15d4:	e1a00006 	mov	r0, r6
    15d8:	e1a01007 	mov	r1, r7
    15dc:	e28d209c 	add	r2, sp, #156	; 0x9c
    15e0:	eb001431 	bl	66ac <__ssprint_r>
    15e4:	e3500000 	cmp	r0, #0
    15e8:	1affff56 	bne	1348 <_svfprintf_r+0x314>
    15ec:	e2488010 	sub	r8, r8, #16
    15f0:	e28d40a0 	add	r4, sp, #160	; 0xa0
    15f4:	e3580010 	cmp	r8, #16
    15f8:	e8940030 	ldm	r4, {r4, r5}
    15fc:	e28da0d0 	add	r10, sp, #208	; 0xd0
    1600:	caffffeb 	bgt	15b4 <_svfprintf_r+0x580>
    1604:	e1a06008 	mov	r6, r8
    1608:	e28d7070 	add	r7, sp, #112	; 0x70
    160c:	e8970180 	ldm	r7, {r7, r8}
    1610:	e2844001 	add	r4, r4, #1
    1614:	e0855006 	add	r5, r5, r6
    1618:	e3540007 	cmp	r4, #7
    161c:	e58a9000 	str	r9, [r10]
    1620:	e58a6004 	str	r6, [r10, #4]
    1624:	e58d50a4 	str	r5, [sp, #164]	; 0xa4
    1628:	e58d40a0 	str	r4, [sp, #160]	; 0xa0
    162c:	d28aa008 	addle	r10, r10, #8
    1630:	da00014a 	ble	1b60 <_svfprintf_r+0xb2c>
    1634:	e59d0040 	ldr	r0, [sp, #64]	; 0x40
    1638:	e59d1030 	ldr	r1, [sp, #48]	; 0x30
    163c:	e28d209c 	add	r2, sp, #156	; 0x9c
    1640:	eb001419 	bl	66ac <__ssprint_r>
    1644:	e3500000 	cmp	r0, #0
    1648:	1affff3e 	bne	1348 <_svfprintf_r+0x314>
    164c:	e59d50a4 	ldr	r5, [sp, #164]	; 0xa4
    1650:	e28da0d0 	add	r10, sp, #208	; 0xd0
    1654:	ea000141 	b	1b60 <_svfprintf_r+0xb2c>
    1658:	e59d4020 	ldr	r4, [sp, #32]
    165c:	e3140008 	tst	r4, #8
    1660:	159dc048 	ldrne	r12, [sp, #72]	; 0x48
    1664:	059d4048 	ldreq	r4, [sp, #72]	; 0x48
    1668:	e58d3024 	str	r3, [sp, #36]	; 0x24
    166c:	128c1007 	addne	r1, r12, #7
    1670:	02841007 	addeq	r1, r4, #7
    1674:	e3c11007 	bic	r1, r1, #7
    1678:	e5919000 	ldr	r9, [r1]
    167c:	e5915004 	ldr	r5, [r1, #4]
    1680:	e2811008 	add	r1, r1, #8
    1684:	e58d1048 	str	r1, [sp, #72]	; 0x48
    1688:	e1a00009 	mov	r0, r9
    168c:	e1a01005 	mov	r1, r5
    1690:	e58d0060 	str	r0, [sp, #96]	; 0x60
    1694:	e58d1064 	str	r1, [sp, #100]	; 0x64
    1698:	e1a01005 	mov	r1, r5
    169c:	e1a00009 	mov	r0, r9
    16a0:	eb001332 	bl	6370 <__fpclassifyd>
    16a4:	e3500001 	cmp	r0, #1
    16a8:	e1a01005 	mov	r1, r5
    16ac:	e1a00009 	mov	r0, r9
    16b0:	1a000414 	bne	2708 <_svfprintf_r+0x16d4>
    16b4:	e3a03000 	mov	r3, #0
    16b8:	e3a02000 	mov	r2, #0
    16bc:	eb001e8c 	bl	90f4 <__aeabi_dcmplt>
    16c0:	e3a04003 	mov	r4, #3
    16c4:	e58d4028 	str	r4, [sp, #40]	; 0x28
    16c8:	e59d4020 	ldr	r4, [sp, #32]
    16cc:	e3500000 	cmp	r0, #0
    16d0:	13a0302d 	movne	r3, #45	; 0x2d
    16d4:	e3a0c000 	mov	r12, #0
    16d8:	e3c44080 	bic	r4, r4, #128	; 0x80
    16dc:	e59f0e74 	ldr	r0, [pc, #3700]	; 2558 <_svfprintf_r+0x1524>
    16e0:	05dd307b 	ldrbeq	r3, [sp, #123]	; 0x7b
    16e4:	15cd307b 	strbne	r3, [sp, #123]	; 0x7b
    16e8:	e58dc044 	str	r12, [sp, #68]	; 0x44
    16ec:	e3570047 	cmp	r7, #71	; 0x47
    16f0:	e58d4020 	str	r4, [sp, #32]
    16f4:	e3a0c003 	mov	r12, #3
    16f8:	e3a04000 	mov	r4, #0
    16fc:	e59f8e58 	ldr	r8, [pc, #3672]	; 255c <_svfprintf_r+0x1528>
    1700:	e58dc038 	str	r12, [sp, #56]	; 0x38
    1704:	d1a08000 	movle	r8, r0
    1708:	e58d4054 	str	r4, [sp, #84]	; 0x54
    170c:	eaffff85 	b	1528 <_svfprintf_r+0x4f4>
    1710:	e59d4020 	ldr	r4, [sp, #32]
    1714:	e3844008 	orr	r4, r4, #8
    1718:	e58d4020 	str	r4, [sp, #32]
    171c:	e5d37000 	ldrb	r7, [r3]
    1720:	eafffe93 	b	1174 <_svfprintf_r+0x140>
    1724:	e59d4020 	ldr	r4, [sp, #32]
    1728:	e59fce30 	ldr	r12, [pc, #3632]	; 2560 <_svfprintf_r+0x152c>
    172c:	e3140020 	tst	r4, #32
    1730:	e58d3024 	str	r3, [sp, #36]	; 0x24
    1734:	e58dc06c 	str	r12, [sp, #108]	; 0x6c
    1738:	0a0000b3 	beq	1a0c <_svfprintf_r+0x9d8>
    173c:	e59dc048 	ldr	r12, [sp, #72]	; 0x48
    1740:	e28c3007 	add	r3, r12, #7
    1744:	e3c33007 	bic	r3, r3, #7
    1748:	e2834008 	add	r4, r3, #8
    174c:	e58d4048 	str	r4, [sp, #72]	; 0x48
    1750:	e8930030 	ldm	r3, {r4, r5}
    1754:	e59dc020 	ldr	r12, [sp, #32]
    1758:	e31c0001 	tst	r12, #1
    175c:	1a000326 	bne	23fc <_svfprintf_r+0x13c8>
    1760:	e1940005 	orrs	r0, r4, r5
    1764:	03a02000 	moveq	r2, #0
    1768:	13a02001 	movne	r2, #1
    176c:	e3a03002 	mov	r3, #2
    1770:	e3a01000 	mov	r1, #0
    1774:	e5cd107b 	strb	r1, [sp, #123]	; 0x7b
    1778:	eaffff3b 	b	146c <_svfprintf_r+0x438>
    177c:	e58d3024 	str	r3, [sp, #36]	; 0x24
    1780:	e59d3048 	ldr	r3, [sp, #72]	; 0x48
    1784:	e59d4048 	ldr	r4, [sp, #72]	; 0x48
    1788:	e5933000 	ldr	r3, [r3]
    178c:	e3a0c001 	mov	r12, #1
    1790:	e2844004 	add	r4, r4, #4
    1794:	e5cd30a8 	strb	r3, [sp, #168]	; 0xa8
    1798:	e3a03000 	mov	r3, #0
    179c:	e58dc028 	str	r12, [sp, #40]	; 0x28
    17a0:	e58d4048 	str	r4, [sp, #72]	; 0x48
    17a4:	e5cd307b 	strb	r3, [sp, #123]	; 0x7b
    17a8:	e58dc038 	str	r12, [sp, #56]	; 0x38
    17ac:	e28d80a8 	add	r8, sp, #168	; 0xa8
    17b0:	e3a03000 	mov	r3, #0
    17b4:	e58d3044 	str	r3, [sp, #68]	; 0x44
    17b8:	e58d3054 	str	r3, [sp, #84]	; 0x54
    17bc:	eaffff5e 	b	153c <_svfprintf_r+0x508>
    17c0:	e59d4020 	ldr	r4, [sp, #32]
    17c4:	e3140020 	tst	r4, #32
    17c8:	e58d3024 	str	r3, [sp, #36]	; 0x24
    17cc:	1affff17 	bne	1430 <_svfprintf_r+0x3fc>
    17d0:	e59d4020 	ldr	r4, [sp, #32]
    17d4:	e3140010 	tst	r4, #16
    17d8:	0a0003fb 	beq	27cc <_svfprintf_r+0x1798>
    17dc:	e59dc048 	ldr	r12, [sp, #72]	; 0x48
    17e0:	e59c3000 	ldr	r3, [r12]
    17e4:	e1a05fc3 	asr	r5, r3, #31
    17e8:	e1a02003 	mov	r2, r3
    17ec:	e1a04003 	mov	r4, r3
    17f0:	e1a03005 	mov	r3, r5
    17f4:	e28cc004 	add	r12, r12, #4
    17f8:	e3520000 	cmp	r2, #0
    17fc:	e2d30000 	sbcs	r0, r3, #0
    1800:	e58dc048 	str	r12, [sp, #72]	; 0x48
    1804:	aaffff14 	bge	145c <_svfprintf_r+0x428>
    1808:	e2744000 	rsbs	r4, r4, #0
    180c:	e2e55000 	rsc	r5, r5, #0
    1810:	e3a0302d 	mov	r3, #45	; 0x2d
    1814:	e1942005 	orrs	r2, r4, r5
    1818:	e5cd307b 	strb	r3, [sp, #123]	; 0x7b
    181c:	03a02000 	moveq	r2, #0
    1820:	13a02001 	movne	r2, #1
    1824:	e3a03001 	mov	r3, #1
    1828:	eaffff0f 	b	146c <_svfprintf_r+0x438>
    182c:	e59dc020 	ldr	r12, [sp, #32]
    1830:	e38cc040 	orr	r12, r12, #64	; 0x40
    1834:	e58dc020 	str	r12, [sp, #32]
    1838:	e5d37000 	ldrb	r7, [r3]
    183c:	eafffe4c 	b	1174 <_svfprintf_r+0x140>
    1840:	e5d37000 	ldrb	r7, [r3]
    1844:	e357006c 	cmp	r7, #108	; 0x6c
    1848:	059d4020 	ldreq	r4, [sp, #32]
    184c:	159dc020 	ldrne	r12, [sp, #32]
    1850:	e1a00003 	mov	r0, r3
    1854:	03844020 	orreq	r4, r4, #32
    1858:	138cc010 	orrne	r12, r12, #16
    185c:	02833001 	addeq	r3, r3, #1
    1860:	058d4020 	streq	r4, [sp, #32]
    1864:	05d07001 	ldrbeq	r7, [r0, #1]
    1868:	158dc020 	strne	r12, [sp, #32]
    186c:	eafffe40 	b	1174 <_svfprintf_r+0x140>
    1870:	e59d4020 	ldr	r4, [sp, #32]
    1874:	e3140020 	tst	r4, #32
    1878:	e58d3024 	str	r3, [sp, #36]	; 0x24
    187c:	0a0003b5 	beq	2758 <_svfprintf_r+0x1724>
    1880:	e59dc048 	ldr	r12, [sp, #72]	; 0x48
    1884:	e59d202c 	ldr	r2, [sp, #44]	; 0x2c
    1888:	e59c3000 	ldr	r3, [r12]
    188c:	e1a01fc2 	asr	r1, r2, #31
    1890:	e28cc004 	add	r12, r12, #4
    1894:	e5832000 	str	r2, [r3]
    1898:	e5831004 	str	r1, [r3, #4]
    189c:	e58dc048 	str	r12, [sp, #72]	; 0x48
    18a0:	eafffe07 	b	10c4 <_svfprintf_r+0x90>
    18a4:	e59dc020 	ldr	r12, [sp, #32]
    18a8:	e58d3024 	str	r3, [sp, #36]	; 0x24
    18ac:	e21c3020 	ands	r3, r12, #32
    18b0:	0a000089 	beq	1adc <_svfprintf_r+0xaa8>
    18b4:	e59d4048 	ldr	r4, [sp, #72]	; 0x48
    18b8:	e2843007 	add	r3, r4, #7
    18bc:	e3c33007 	bic	r3, r3, #7
    18c0:	e8930030 	ldm	r3, {r4, r5}
    18c4:	e2833008 	add	r3, r3, #8
    18c8:	e194c005 	orrs	r12, r4, r5
    18cc:	e58d3048 	str	r3, [sp, #72]	; 0x48
    18d0:	03a02000 	moveq	r2, #0
    18d4:	13a02001 	movne	r2, #1
    18d8:	e3a03000 	mov	r3, #0
    18dc:	eaffffa3 	b	1770 <_svfprintf_r+0x73c>
    18e0:	e58d3024 	str	r3, [sp, #36]	; 0x24
    18e4:	e59d3048 	ldr	r3, [sp, #72]	; 0x48
    18e8:	e283c004 	add	r12, r3, #4
    18ec:	e58dc048 	str	r12, [sp, #72]	; 0x48
    18f0:	e59dc020 	ldr	r12, [sp, #32]
    18f4:	e5932000 	ldr	r2, [r3]
    18f8:	e38cc002 	orr	r12, r12, #2
    18fc:	e58dc020 	str	r12, [sp, #32]
    1900:	e3a05000 	mov	r5, #0
    1904:	e59fcc58 	ldr	r12, [pc, #3160]	; 2564 <_svfprintf_r+0x1530>
    1908:	e3a03030 	mov	r3, #48	; 0x30
    190c:	e3a07078 	mov	r7, #120	; 0x78
    1910:	e1a04002 	mov	r4, r2
    1914:	e0522005 	subs	r2, r2, r5
    1918:	e5cd307c 	strb	r3, [sp, #124]	; 0x7c
    191c:	e5cd707d 	strb	r7, [sp, #125]	; 0x7d
    1920:	13a02001 	movne	r2, #1
    1924:	e58dc06c 	str	r12, [sp, #108]	; 0x6c
    1928:	e3a03002 	mov	r3, #2
    192c:	eaffff8f 	b	1770 <_svfprintf_r+0x73c>
    1930:	e59d4020 	ldr	r4, [sp, #32]
    1934:	e3844020 	orr	r4, r4, #32
    1938:	e58d4020 	str	r4, [sp, #32]
    193c:	e5d37000 	ldrb	r7, [r3]
    1940:	eafffe0b 	b	1174 <_svfprintf_r+0x140>
    1944:	e3a04000 	mov	r4, #0
    1948:	e59dc048 	ldr	r12, [sp, #72]	; 0x48
    194c:	e5cd407b 	strb	r4, [sp, #123]	; 0x7b
    1950:	e59c8000 	ldr	r8, [r12]
    1954:	e1580004 	cmp	r8, r4
    1958:	e58d3024 	str	r3, [sp, #36]	; 0x24
    195c:	e28c5004 	add	r5, r12, #4
    1960:	0a0004e8 	beq	2d08 <_svfprintf_r+0x1cd4>
    1964:	e3560000 	cmp	r6, #0
    1968:	e1a00008 	mov	r0, r8
    196c:	ba0004cb 	blt	2ca0 <_svfprintf_r+0x1c6c>
    1970:	e1a01004 	mov	r1, r4
    1974:	e1a02006 	mov	r2, r6
    1978:	eb000e68 	bl	5320 <memchr>
    197c:	e3500000 	cmp	r0, #0
    1980:	0a000515 	beq	2ddc <_svfprintf_r+0x1da8>
    1984:	e0680000 	rsb	r0, r8, r0
    1988:	e1500006 	cmp	r0, r6
    198c:	e58d0038 	str	r0, [sp, #56]	; 0x38
    1990:	e58d4044 	str	r4, [sp, #68]	; 0x44
    1994:	da0003dd 	ble	2910 <_svfprintf_r+0x18dc>
    1998:	e59dc044 	ldr	r12, [sp, #68]	; 0x44
    199c:	e1c64fc6 	bic	r4, r6, r6, asr #31
    19a0:	e58d4028 	str	r4, [sp, #40]	; 0x28
    19a4:	e5dd307b 	ldrb	r3, [sp, #123]	; 0x7b
    19a8:	e58d5048 	str	r5, [sp, #72]	; 0x48
    19ac:	e58d6038 	str	r6, [sp, #56]	; 0x38
    19b0:	e58dc054 	str	r12, [sp, #84]	; 0x54
    19b4:	eafffedb 	b	1528 <_svfprintf_r+0x4f4>
    19b8:	e59dc020 	ldr	r12, [sp, #32]
    19bc:	e31c0020 	tst	r12, #32
    19c0:	e58d3024 	str	r3, [sp, #36]	; 0x24
    19c4:	0a000057 	beq	1b28 <_svfprintf_r+0xaf4>
    19c8:	e59d4048 	ldr	r4, [sp, #72]	; 0x48
    19cc:	e2843007 	add	r3, r4, #7
    19d0:	e3c33007 	bic	r3, r3, #7
    19d4:	e8930030 	ldm	r3, {r4, r5}
    19d8:	e2833008 	add	r3, r3, #8
    19dc:	e194c005 	orrs	r12, r4, r5
    19e0:	e58d3048 	str	r3, [sp, #72]	; 0x48
    19e4:	03a02000 	moveq	r2, #0
    19e8:	13a02001 	movne	r2, #1
    19ec:	e3a03001 	mov	r3, #1
    19f0:	eaffff5e 	b	1770 <_svfprintf_r+0x73c>
    19f4:	e59f4b68 	ldr	r4, [pc, #2920]	; 2564 <_svfprintf_r+0x1530>
    19f8:	e58d406c 	str	r4, [sp, #108]	; 0x6c
    19fc:	e59d4020 	ldr	r4, [sp, #32]
    1a00:	e3140020 	tst	r4, #32
    1a04:	e58d3024 	str	r3, [sp, #36]	; 0x24
    1a08:	1affff4b 	bne	173c <_svfprintf_r+0x708>
    1a0c:	e59dc020 	ldr	r12, [sp, #32]
    1a10:	e31c0010 	tst	r12, #16
    1a14:	1a00028b 	bne	2448 <_svfprintf_r+0x1414>
    1a18:	e59d4020 	ldr	r4, [sp, #32]
    1a1c:	e3140040 	tst	r4, #64	; 0x40
    1a20:	0a000288 	beq	2448 <_svfprintf_r+0x1414>
    1a24:	e59dc048 	ldr	r12, [sp, #72]	; 0x48
    1a28:	e1dc30b0 	ldrh	r3, [r12]
    1a2c:	e28cc004 	add	r12, r12, #4
    1a30:	e1a04003 	mov	r4, r3
    1a34:	e3a05000 	mov	r5, #0
    1a38:	e58dc048 	str	r12, [sp, #72]	; 0x48
    1a3c:	eaffff44 	b	1754 <_svfprintf_r+0x720>
    1a40:	e3570000 	cmp	r7, #0
    1a44:	e58d3024 	str	r3, [sp, #36]	; 0x24
    1a48:	0afffe38 	beq	1330 <_svfprintf_r+0x2fc>
    1a4c:	e3a04001 	mov	r4, #1
    1a50:	e3a03000 	mov	r3, #0
    1a54:	e58d4028 	str	r4, [sp, #40]	; 0x28
    1a58:	e5cd70a8 	strb	r7, [sp, #168]	; 0xa8
    1a5c:	e5cd307b 	strb	r3, [sp, #123]	; 0x7b
    1a60:	e58d4038 	str	r4, [sp, #56]	; 0x38
    1a64:	e28d80a8 	add	r8, sp, #168	; 0xa8
    1a68:	eaffff50 	b	17b0 <_svfprintf_r+0x77c>
    1a6c:	e5dd007b 	ldrb	r0, [sp, #123]	; 0x7b
    1a70:	e3500000 	cmp	r0, #0
    1a74:	1a000335 	bne	2750 <_svfprintf_r+0x171c>
    1a78:	e5cd107b 	strb	r1, [sp, #123]	; 0x7b
    1a7c:	e5d37000 	ldrb	r7, [r3]
    1a80:	eafffdbb 	b	1174 <_svfprintf_r+0x140>
    1a84:	e59d4020 	ldr	r4, [sp, #32]
    1a88:	e3844001 	orr	r4, r4, #1
    1a8c:	e58d4020 	str	r4, [sp, #32]
    1a90:	e5d37000 	ldrb	r7, [r3]
    1a94:	eafffdb6 	b	1174 <_svfprintf_r+0x140>
    1a98:	e59dc048 	ldr	r12, [sp, #72]	; 0x48
    1a9c:	e59cc000 	ldr	r12, [r12]
    1aa0:	e59d4048 	ldr	r4, [sp, #72]	; 0x48
    1aa4:	e35c0000 	cmp	r12, #0
    1aa8:	e58dc034 	str	r12, [sp, #52]	; 0x34
    1aac:	e2840004 	add	r0, r4, #4
    1ab0:	bafffe0d 	blt	12ec <_svfprintf_r+0x2b8>
    1ab4:	e5d37000 	ldrb	r7, [r3]
    1ab8:	e58d0048 	str	r0, [sp, #72]	; 0x48
    1abc:	eafffdac 	b	1174 <_svfprintf_r+0x140>
    1ac0:	e59d4020 	ldr	r4, [sp, #32]
    1ac4:	e3844010 	orr	r4, r4, #16
    1ac8:	e58d4020 	str	r4, [sp, #32]
    1acc:	e59dc020 	ldr	r12, [sp, #32]
    1ad0:	e58d3024 	str	r3, [sp, #36]	; 0x24
    1ad4:	e21c3020 	ands	r3, r12, #32
    1ad8:	1affff75 	bne	18b4 <_svfprintf_r+0x880>
    1adc:	e59d4020 	ldr	r4, [sp, #32]
    1ae0:	e2141010 	ands	r1, r4, #16
    1ae4:	0a00032b 	beq	2798 <_svfprintf_r+0x1764>
    1ae8:	e59dc048 	ldr	r12, [sp, #72]	; 0x48
    1aec:	e59c2000 	ldr	r2, [r12]
    1af0:	e3a05000 	mov	r5, #0
    1af4:	e1a04002 	mov	r4, r2
    1af8:	e28cc004 	add	r12, r12, #4
    1afc:	e0522005 	subs	r2, r2, r5
    1b00:	13a02001 	movne	r2, #1
    1b04:	e58dc048 	str	r12, [sp, #72]	; 0x48
    1b08:	eaffff18 	b	1770 <_svfprintf_r+0x73c>
    1b0c:	e59d4020 	ldr	r4, [sp, #32]
    1b10:	e3844010 	orr	r4, r4, #16
    1b14:	e58d4020 	str	r4, [sp, #32]
    1b18:	e59dc020 	ldr	r12, [sp, #32]
    1b1c:	e31c0020 	tst	r12, #32
    1b20:	e58d3024 	str	r3, [sp, #36]	; 0x24
    1b24:	1affffa7 	bne	19c8 <_svfprintf_r+0x994>
    1b28:	e59d4020 	ldr	r4, [sp, #32]
    1b2c:	e3140010 	tst	r4, #16
    1b30:	0a000312 	beq	2780 <_svfprintf_r+0x174c>
    1b34:	e59dc048 	ldr	r12, [sp, #72]	; 0x48
    1b38:	e59c2000 	ldr	r2, [r12]
    1b3c:	e3a05000 	mov	r5, #0
    1b40:	e1a04002 	mov	r4, r2
    1b44:	e28cc004 	add	r12, r12, #4
    1b48:	e0522005 	subs	r2, r2, r5
    1b4c:	13a02001 	movne	r2, #1
    1b50:	e58dc048 	str	r12, [sp, #72]	; 0x48
    1b54:	e3a03001 	mov	r3, #1
    1b58:	eaffff04 	b	1770 <_svfprintf_r+0x73c>
    1b5c:	e59d50a4 	ldr	r5, [sp, #164]	; 0xa4
    1b60:	e5dd307b 	ldrb	r3, [sp, #123]	; 0x7b
    1b64:	e3530000 	cmp	r3, #0
    1b68:	0a00000b 	beq	1b9c <_svfprintf_r+0xb68>
    1b6c:	e59d40a0 	ldr	r4, [sp, #160]	; 0xa0
    1b70:	e28d307b 	add	r3, sp, #123	; 0x7b
    1b74:	e2844001 	add	r4, r4, #1
    1b78:	e58a3000 	str	r3, [r10]
    1b7c:	e2855001 	add	r5, r5, #1
    1b80:	e3540007 	cmp	r4, #7
    1b84:	e3a03001 	mov	r3, #1
    1b88:	e58a3004 	str	r3, [r10, #4]
    1b8c:	e58d50a4 	str	r5, [sp, #164]	; 0xa4
    1b90:	e58d40a0 	str	r4, [sp, #160]	; 0xa0
    1b94:	d28aa008 	addle	r10, r10, #8
    1b98:	ca00018d 	bgt	21d4 <_svfprintf_r+0x11a0>
    1b9c:	e59d303c 	ldr	r3, [sp, #60]	; 0x3c
    1ba0:	e3530000 	cmp	r3, #0
    1ba4:	0a00000b 	beq	1bd8 <_svfprintf_r+0xba4>
    1ba8:	e59d40a0 	ldr	r4, [sp, #160]	; 0xa0
    1bac:	e28d307c 	add	r3, sp, #124	; 0x7c
    1bb0:	e2844001 	add	r4, r4, #1
    1bb4:	e58a3000 	str	r3, [r10]
    1bb8:	e2855002 	add	r5, r5, #2
    1bbc:	e3540007 	cmp	r4, #7
    1bc0:	e3a03002 	mov	r3, #2
    1bc4:	e58a3004 	str	r3, [r10, #4]
    1bc8:	e58d50a4 	str	r5, [sp, #164]	; 0xa4
    1bcc:	e58d40a0 	str	r4, [sp, #160]	; 0xa0
    1bd0:	d28aa008 	addle	r10, r10, #8
    1bd4:	ca000187 	bgt	21f8 <_svfprintf_r+0x11c4>
    1bd8:	e59d4050 	ldr	r4, [sp, #80]	; 0x50
    1bdc:	e3540080 	cmp	r4, #128	; 0x80
    1be0:	0a0000e5 	beq	1f7c <_svfprintf_r+0xf48>
    1be4:	e59dc044 	ldr	r12, [sp, #68]	; 0x44
    1be8:	e59d3038 	ldr	r3, [sp, #56]	; 0x38
    1bec:	e063900c 	rsb	r9, r3, r12
    1bf0:	e3590000 	cmp	r9, #0
    1bf4:	da000036 	ble	1cd4 <_svfprintf_r+0xca0>
    1bf8:	e3590010 	cmp	r9, #16
    1bfc:	e59d40a0 	ldr	r4, [sp, #160]	; 0xa0
    1c00:	e59f696c 	ldr	r6, [pc, #2412]	; 2574 <_svfprintf_r+0x1540>
    1c04:	da000022 	ble	1c94 <_svfprintf_r+0xc60>
    1c08:	e58d7044 	str	r7, [sp, #68]	; 0x44
    1c0c:	e58d803c 	str	r8, [sp, #60]	; 0x3c
    1c10:	e3a0b010 	mov	r11, #16
    1c14:	e1a08009 	mov	r8, r9
    1c18:	e59d7030 	ldr	r7, [sp, #48]	; 0x30
    1c1c:	e1a09006 	mov	r9, r6
    1c20:	e59d6040 	ldr	r6, [sp, #64]	; 0x40
    1c24:	ea000002 	b	1c34 <_svfprintf_r+0xc00>
    1c28:	e2488010 	sub	r8, r8, #16
    1c2c:	e3580010 	cmp	r8, #16
    1c30:	da000013 	ble	1c84 <_svfprintf_r+0xc50>
    1c34:	e2844001 	add	r4, r4, #1
    1c38:	e3540007 	cmp	r4, #7
    1c3c:	e2855010 	add	r5, r5, #16
    1c40:	e88a0a00 	stm	r10, {r9, r11}
    1c44:	e58d50a4 	str	r5, [sp, #164]	; 0xa4
    1c48:	e58d40a0 	str	r4, [sp, #160]	; 0xa0
    1c4c:	d28aa008 	addle	r10, r10, #8
    1c50:	dafffff4 	ble	1c28 <_svfprintf_r+0xbf4>
    1c54:	e1a00006 	mov	r0, r6
    1c58:	e1a01007 	mov	r1, r7
    1c5c:	e28d209c 	add	r2, sp, #156	; 0x9c
    1c60:	eb001291 	bl	66ac <__ssprint_r>
    1c64:	e3500000 	cmp	r0, #0
    1c68:	1afffdb6 	bne	1348 <_svfprintf_r+0x314>
    1c6c:	e2488010 	sub	r8, r8, #16
    1c70:	e28d40a0 	add	r4, sp, #160	; 0xa0
    1c74:	e3580010 	cmp	r8, #16
    1c78:	e8940030 	ldm	r4, {r4, r5}
    1c7c:	e28da0d0 	add	r10, sp, #208	; 0xd0
    1c80:	caffffeb 	bgt	1c34 <_svfprintf_r+0xc00>
    1c84:	e1a06009 	mov	r6, r9
    1c88:	e59d7044 	ldr	r7, [sp, #68]	; 0x44
    1c8c:	e1a09008 	mov	r9, r8
    1c90:	e59d803c 	ldr	r8, [sp, #60]	; 0x3c
    1c94:	e2844001 	add	r4, r4, #1
    1c98:	e0855009 	add	r5, r5, r9
    1c9c:	e3540007 	cmp	r4, #7
    1ca0:	e88a0240 	stm	r10, {r6, r9}
    1ca4:	e58d50a4 	str	r5, [sp, #164]	; 0xa4
    1ca8:	e58d40a0 	str	r4, [sp, #160]	; 0xa0
    1cac:	d28aa008 	addle	r10, r10, #8
    1cb0:	da000007 	ble	1cd4 <_svfprintf_r+0xca0>
    1cb4:	e59d0040 	ldr	r0, [sp, #64]	; 0x40
    1cb8:	e59d1030 	ldr	r1, [sp, #48]	; 0x30
    1cbc:	e28d209c 	add	r2, sp, #156	; 0x9c
    1cc0:	eb001279 	bl	66ac <__ssprint_r>
    1cc4:	e3500000 	cmp	r0, #0
    1cc8:	1afffd9e 	bne	1348 <_svfprintf_r+0x314>
    1ccc:	e59d50a4 	ldr	r5, [sp, #164]	; 0xa4
    1cd0:	e28da0d0 	add	r10, sp, #208	; 0xd0
    1cd4:	e59d4020 	ldr	r4, [sp, #32]
    1cd8:	e3140c01 	tst	r4, #256	; 0x100
    1cdc:	1a00004d 	bne	1e18 <_svfprintf_r+0xde4>
    1ce0:	e59d40a0 	ldr	r4, [sp, #160]	; 0xa0
    1ce4:	e59dc038 	ldr	r12, [sp, #56]	; 0x38
    1ce8:	e2844001 	add	r4, r4, #1
    1cec:	e085500c 	add	r5, r5, r12
    1cf0:	e3540007 	cmp	r4, #7
    1cf4:	e88a1100 	stm	r10, {r8, r12}
    1cf8:	e58d50a4 	str	r5, [sp, #164]	; 0xa4
    1cfc:	e58d40a0 	str	r4, [sp, #160]	; 0xa0
    1d00:	ca000110 	bgt	2148 <_svfprintf_r+0x1114>
    1d04:	e28aa008 	add	r10, r10, #8
    1d08:	e59d4020 	ldr	r4, [sp, #32]
    1d0c:	e3140004 	tst	r4, #4
    1d10:	0a000033 	beq	1de4 <_svfprintf_r+0xdb0>
    1d14:	e59dc034 	ldr	r12, [sp, #52]	; 0x34
    1d18:	e59d4028 	ldr	r4, [sp, #40]	; 0x28
    1d1c:	e064600c 	rsb	r6, r4, r12
    1d20:	e3560000 	cmp	r6, #0
    1d24:	da00002e 	ble	1de4 <_svfprintf_r+0xdb0>
    1d28:	e3560010 	cmp	r6, #16
    1d2c:	e59d40a0 	ldr	r4, [sp, #160]	; 0xa0
    1d30:	e59f981c 	ldr	r9, [pc, #2076]	; 2554 <_svfprintf_r+0x1520>
    1d34:	da00001b 	ble	1da8 <_svfprintf_r+0xd74>
    1d38:	e3a07010 	mov	r7, #16
    1d3c:	e59d8040 	ldr	r8, [sp, #64]	; 0x40
    1d40:	e59db030 	ldr	r11, [sp, #48]	; 0x30
    1d44:	ea000002 	b	1d54 <_svfprintf_r+0xd20>
    1d48:	e2466010 	sub	r6, r6, #16
    1d4c:	e3560010 	cmp	r6, #16
    1d50:	da000014 	ble	1da8 <_svfprintf_r+0xd74>
    1d54:	e2844001 	add	r4, r4, #1
    1d58:	e3540007 	cmp	r4, #7
    1d5c:	e2855010 	add	r5, r5, #16
    1d60:	e58a9000 	str	r9, [r10]
    1d64:	e58a7004 	str	r7, [r10, #4]
    1d68:	e58d50a4 	str	r5, [sp, #164]	; 0xa4
    1d6c:	e58d40a0 	str	r4, [sp, #160]	; 0xa0
    1d70:	d28aa008 	addle	r10, r10, #8
    1d74:	dafffff3 	ble	1d48 <_svfprintf_r+0xd14>
    1d78:	e1a00008 	mov	r0, r8
    1d7c:	e1a0100b 	mov	r1, r11
    1d80:	e28d209c 	add	r2, sp, #156	; 0x9c
    1d84:	eb001248 	bl	66ac <__ssprint_r>
    1d88:	e3500000 	cmp	r0, #0
    1d8c:	1afffd6d 	bne	1348 <_svfprintf_r+0x314>
    1d90:	e2466010 	sub	r6, r6, #16
    1d94:	e28d40a0 	add	r4, sp, #160	; 0xa0
    1d98:	e3560010 	cmp	r6, #16
    1d9c:	e8940030 	ldm	r4, {r4, r5}
    1da0:	e28da0d0 	add	r10, sp, #208	; 0xd0
    1da4:	caffffea 	bgt	1d54 <_svfprintf_r+0xd20>
    1da8:	e2844001 	add	r4, r4, #1
    1dac:	e0865005 	add	r5, r6, r5
    1db0:	e3540007 	cmp	r4, #7
    1db4:	e58a9000 	str	r9, [r10]
    1db8:	e58a6004 	str	r6, [r10, #4]
    1dbc:	e58d50a4 	str	r5, [sp, #164]	; 0xa4
    1dc0:	e58d40a0 	str	r4, [sp, #160]	; 0xa0
    1dc4:	da000006 	ble	1de4 <_svfprintf_r+0xdb0>
    1dc8:	e59d0040 	ldr	r0, [sp, #64]	; 0x40
    1dcc:	e59d1030 	ldr	r1, [sp, #48]	; 0x30
    1dd0:	e28d209c 	add	r2, sp, #156	; 0x9c
    1dd4:	eb001234 	bl	66ac <__ssprint_r>
    1dd8:	e3500000 	cmp	r0, #0
    1ddc:	1afffd59 	bne	1348 <_svfprintf_r+0x314>
    1de0:	e59d50a4 	ldr	r5, [sp, #164]	; 0xa4
    1de4:	e28d4028 	add	r4, sp, #40	; 0x28
    1de8:	e8941010 	ldm	r4, {r4, r12}
    1dec:	e59d0034 	ldr	r0, [sp, #52]	; 0x34
    1df0:	e1540000 	cmp	r4, r0
    1df4:	a08cc004 	addge	r12, r12, r4
    1df8:	b08cc000 	addlt	r12, r12, r0
    1dfc:	e3550000 	cmp	r5, #0
    1e00:	e58dc02c 	str	r12, [sp, #44]	; 0x2c
    1e04:	1a0000d8 	bne	216c <_svfprintf_r+0x1138>
    1e08:	e3a03000 	mov	r3, #0
    1e0c:	e58d30a0 	str	r3, [sp, #160]	; 0xa0
    1e10:	e28da0d0 	add	r10, sp, #208	; 0xd0
    1e14:	eafffcaa 	b	10c4 <_svfprintf_r+0x90>
    1e18:	e3570065 	cmp	r7, #101	; 0x65
    1e1c:	da000093 	ble	2070 <_svfprintf_r+0x103c>
    1e20:	e28d1060 	add	r1, sp, #96	; 0x60
    1e24:	e8910003 	ldm	r1, {r0, r1}
    1e28:	e3a02000 	mov	r2, #0
    1e2c:	e3a03000 	mov	r3, #0
    1e30:	eb001ca9 	bl	90dc <__aeabi_dcmpeq>
    1e34:	e3500000 	cmp	r0, #0
    1e38:	0a0000f7 	beq	221c <_svfprintf_r+0x11e8>
    1e3c:	e59d40a0 	ldr	r4, [sp, #160]	; 0xa0
    1e40:	e59f3728 	ldr	r3, [pc, #1832]	; 2570 <_svfprintf_r+0x153c>
    1e44:	e2844001 	add	r4, r4, #1
    1e48:	e58a3000 	str	r3, [r10]
    1e4c:	e2855001 	add	r5, r5, #1
    1e50:	e3540007 	cmp	r4, #7
    1e54:	e3a03001 	mov	r3, #1
    1e58:	e58a3004 	str	r3, [r10, #4]
    1e5c:	e58d50a4 	str	r5, [sp, #164]	; 0xa4
    1e60:	e58d40a0 	str	r4, [sp, #160]	; 0xa0
    1e64:	d28aa008 	addle	r10, r10, #8
    1e68:	ca00025d 	bgt	27e4 <_svfprintf_r+0x17b0>
    1e6c:	e59d3080 	ldr	r3, [sp, #128]	; 0x80
    1e70:	e59d404c 	ldr	r4, [sp, #76]	; 0x4c
    1e74:	e1530004 	cmp	r3, r4
    1e78:	ba000002 	blt	1e88 <_svfprintf_r+0xe54>
    1e7c:	e59dc020 	ldr	r12, [sp, #32]
    1e80:	e31c0001 	tst	r12, #1
    1e84:	0affff9f 	beq	1d08 <_svfprintf_r+0xcd4>
    1e88:	e59dc05c 	ldr	r12, [sp, #92]	; 0x5c
    1e8c:	e59d40a0 	ldr	r4, [sp, #160]	; 0xa0
    1e90:	e085500c 	add	r5, r5, r12
    1e94:	e59dc058 	ldr	r12, [sp, #88]	; 0x58
    1e98:	e2844001 	add	r4, r4, #1
    1e9c:	e58ac000 	str	r12, [r10]
    1ea0:	e59dc05c 	ldr	r12, [sp, #92]	; 0x5c
    1ea4:	e3540007 	cmp	r4, #7
    1ea8:	e58ac004 	str	r12, [r10, #4]
    1eac:	e58d50a4 	str	r5, [sp, #164]	; 0xa4
    1eb0:	e58d40a0 	str	r4, [sp, #160]	; 0xa0
    1eb4:	d28aa008 	addle	r10, r10, #8
    1eb8:	ca00031c 	bgt	2b30 <_svfprintf_r+0x1afc>
    1ebc:	e59d404c 	ldr	r4, [sp, #76]	; 0x4c
    1ec0:	e2447001 	sub	r7, r4, #1
    1ec4:	e3570000 	cmp	r7, #0
    1ec8:	daffff8e 	ble	1d08 <_svfprintf_r+0xcd4>
    1ecc:	e3570010 	cmp	r7, #16
    1ed0:	e59d40a0 	ldr	r4, [sp, #160]	; 0xa0
    1ed4:	e59f6698 	ldr	r6, [pc, #1688]	; 2574 <_svfprintf_r+0x1540>
    1ed8:	da000152 	ble	2428 <_svfprintf_r+0x13f4>
    1edc:	e3a08010 	mov	r8, #16
    1ee0:	e59d9040 	ldr	r9, [sp, #64]	; 0x40
    1ee4:	e59db030 	ldr	r11, [sp, #48]	; 0x30
    1ee8:	ea000002 	b	1ef8 <_svfprintf_r+0xec4>
    1eec:	e2477010 	sub	r7, r7, #16
    1ef0:	e3570010 	cmp	r7, #16
    1ef4:	da00014b 	ble	2428 <_svfprintf_r+0x13f4>
    1ef8:	e2844001 	add	r4, r4, #1
    1efc:	e3540007 	cmp	r4, #7
    1f00:	e2855010 	add	r5, r5, #16
    1f04:	e88a0140 	stm	r10, {r6, r8}
    1f08:	e58d50a4 	str	r5, [sp, #164]	; 0xa4
    1f0c:	e58d40a0 	str	r4, [sp, #160]	; 0xa0
    1f10:	d28aa008 	addle	r10, r10, #8
    1f14:	dafffff4 	ble	1eec <_svfprintf_r+0xeb8>
    1f18:	e1a00009 	mov	r0, r9
    1f1c:	e1a0100b 	mov	r1, r11
    1f20:	e28d209c 	add	r2, sp, #156	; 0x9c
    1f24:	eb0011e0 	bl	66ac <__ssprint_r>
    1f28:	e3500000 	cmp	r0, #0
    1f2c:	1afffd05 	bne	1348 <_svfprintf_r+0x314>
    1f30:	e28d40a0 	add	r4, sp, #160	; 0xa0
    1f34:	e8940030 	ldm	r4, {r4, r5}
    1f38:	e28da0d0 	add	r10, sp, #208	; 0xd0
    1f3c:	eaffffea 	b	1eec <_svfprintf_r+0xeb8>
    1f40:	e3530000 	cmp	r3, #0
    1f44:	158d2038 	strne	r2, [sp, #56]	; 0x38
    1f48:	128d80d0 	addne	r8, sp, #208	; 0xd0
    1f4c:	1afffd6d 	bne	1508 <_svfprintf_r+0x4d4>
    1f50:	e59d4020 	ldr	r4, [sp, #32]
    1f54:	e3140001 	tst	r4, #1
    1f58:	128d8e11 	addne	r8, sp, #272	; 0x110
    1f5c:	13a03030 	movne	r3, #48	; 0x30
    1f60:	159dc01c 	ldrne	r12, [sp, #28]
    1f64:	15683041 	strbne	r3, [r8, #-65]!	; 0xffffffbf
    1f68:	1068c00c 	rsbne	r12, r8, r12
    1f6c:	158dc038 	strne	r12, [sp, #56]	; 0x38
    1f70:	058d3038 	streq	r3, [sp, #56]	; 0x38
    1f74:	028d80d0 	addeq	r8, sp, #208	; 0xd0
    1f78:	eafffd62 	b	1508 <_svfprintf_r+0x4d4>
    1f7c:	e59dc034 	ldr	r12, [sp, #52]	; 0x34
    1f80:	e59d4028 	ldr	r4, [sp, #40]	; 0x28
    1f84:	e064900c 	rsb	r9, r4, r12
    1f88:	e3590000 	cmp	r9, #0
    1f8c:	daffff14 	ble	1be4 <_svfprintf_r+0xbb0>
    1f90:	e3590010 	cmp	r9, #16
    1f94:	e59d40a0 	ldr	r4, [sp, #160]	; 0xa0
    1f98:	e59f65d4 	ldr	r6, [pc, #1492]	; 2574 <_svfprintf_r+0x1540>
    1f9c:	da000022 	ble	202c <_svfprintf_r+0xff8>
    1fa0:	e58d703c 	str	r7, [sp, #60]	; 0x3c
    1fa4:	e58d8050 	str	r8, [sp, #80]	; 0x50
    1fa8:	e3a0b010 	mov	r11, #16
    1fac:	e1a08009 	mov	r8, r9
    1fb0:	e59d7030 	ldr	r7, [sp, #48]	; 0x30
    1fb4:	e1a09006 	mov	r9, r6
    1fb8:	e59d6040 	ldr	r6, [sp, #64]	; 0x40
    1fbc:	ea000002 	b	1fcc <_svfprintf_r+0xf98>
    1fc0:	e2488010 	sub	r8, r8, #16
    1fc4:	e3580010 	cmp	r8, #16
    1fc8:	da000013 	ble	201c <_svfprintf_r+0xfe8>
    1fcc:	e2844001 	add	r4, r4, #1
    1fd0:	e3540007 	cmp	r4, #7
    1fd4:	e2855010 	add	r5, r5, #16
    1fd8:	e88a0a00 	stm	r10, {r9, r11}
    1fdc:	e58d50a4 	str	r5, [sp, #164]	; 0xa4
    1fe0:	e58d40a0 	str	r4, [sp, #160]	; 0xa0
    1fe4:	d28aa008 	addle	r10, r10, #8
    1fe8:	dafffff4 	ble	1fc0 <_svfprintf_r+0xf8c>
    1fec:	e1a00006 	mov	r0, r6
    1ff0:	e1a01007 	mov	r1, r7
    1ff4:	e28d209c 	add	r2, sp, #156	; 0x9c
    1ff8:	eb0011ab 	bl	66ac <__ssprint_r>
    1ffc:	e3500000 	cmp	r0, #0
    2000:	1afffcd0 	bne	1348 <_svfprintf_r+0x314>
    2004:	e2488010 	sub	r8, r8, #16
    2008:	e28d40a0 	add	r4, sp, #160	; 0xa0
    200c:	e3580010 	cmp	r8, #16
    2010:	e8940030 	ldm	r4, {r4, r5}
    2014:	e28da0d0 	add	r10, sp, #208	; 0xd0
    2018:	caffffeb 	bgt	1fcc <_svfprintf_r+0xf98>
    201c:	e1a06009 	mov	r6, r9
    2020:	e59d703c 	ldr	r7, [sp, #60]	; 0x3c
    2024:	e1a09008 	mov	r9, r8
    2028:	e59d8050 	ldr	r8, [sp, #80]	; 0x50
    202c:	e2844001 	add	r4, r4, #1
    2030:	e0855009 	add	r5, r5, r9
    2034:	e3540007 	cmp	r4, #7
    2038:	e88a0240 	stm	r10, {r6, r9}
    203c:	e58d50a4 	str	r5, [sp, #164]	; 0xa4
    2040:	e58d40a0 	str	r4, [sp, #160]	; 0xa0
    2044:	d28aa008 	addle	r10, r10, #8
    2048:	dafffee5 	ble	1be4 <_svfprintf_r+0xbb0>
    204c:	e59d0040 	ldr	r0, [sp, #64]	; 0x40
    2050:	e59d1030 	ldr	r1, [sp, #48]	; 0x30
    2054:	e28d209c 	add	r2, sp, #156	; 0x9c
    2058:	eb001193 	bl	66ac <__ssprint_r>
    205c:	e3500000 	cmp	r0, #0
    2060:	1afffcb8 	bne	1348 <_svfprintf_r+0x314>
    2064:	e59d50a4 	ldr	r5, [sp, #164]	; 0xa4
    2068:	e28da0d0 	add	r10, sp, #208	; 0xd0
    206c:	eafffedc 	b	1be4 <_svfprintf_r+0xbb0>
    2070:	e59d404c 	ldr	r4, [sp, #76]	; 0x4c
    2074:	e3540001 	cmp	r4, #1
    2078:	e59d40a0 	ldr	r4, [sp, #160]	; 0xa0
    207c:	e2855001 	add	r5, r5, #1
    2080:	e2844001 	add	r4, r4, #1
    2084:	da000169 	ble	2630 <_svfprintf_r+0x15fc>
    2088:	e3540007 	cmp	r4, #7
    208c:	e3a03001 	mov	r3, #1
    2090:	e58a8000 	str	r8, [r10]
    2094:	e58a3004 	str	r3, [r10, #4]
    2098:	e58d50a4 	str	r5, [sp, #164]	; 0xa4
    209c:	e58d40a0 	str	r4, [sp, #160]	; 0xa0
    20a0:	d28aa008 	addle	r10, r10, #8
    20a4:	ca00016c 	bgt	265c <_svfprintf_r+0x1628>
    20a8:	e59dc05c 	ldr	r12, [sp, #92]	; 0x5c
    20ac:	e085500c 	add	r5, r5, r12
    20b0:	e59dc058 	ldr	r12, [sp, #88]	; 0x58
    20b4:	e2844001 	add	r4, r4, #1
    20b8:	e58ac000 	str	r12, [r10]
    20bc:	e59dc05c 	ldr	r12, [sp, #92]	; 0x5c
    20c0:	e3540007 	cmp	r4, #7
    20c4:	e58ac004 	str	r12, [r10, #4]
    20c8:	e58d50a4 	str	r5, [sp, #164]	; 0xa4
    20cc:	e58d40a0 	str	r4, [sp, #160]	; 0xa0
    20d0:	d28aa008 	addle	r10, r10, #8
    20d4:	ca00016a 	bgt	2684 <_svfprintf_r+0x1650>
    20d8:	e28d1060 	add	r1, sp, #96	; 0x60
    20dc:	e8910003 	ldm	r1, {r0, r1}
    20e0:	e3a02000 	mov	r2, #0
    20e4:	e3a03000 	mov	r3, #0
    20e8:	eb001bfb 	bl	90dc <__aeabi_dcmpeq>
    20ec:	e3500000 	cmp	r0, #0
    20f0:	e59dc04c 	ldr	r12, [sp, #76]	; 0x4c
    20f4:	1a00008e 	bne	2334 <_svfprintf_r+0x1300>
    20f8:	e24c3001 	sub	r3, r12, #1
    20fc:	e2844001 	add	r4, r4, #1
    2100:	e2888001 	add	r8, r8, #1
    2104:	e0855003 	add	r5, r5, r3
    2108:	e3540007 	cmp	r4, #7
    210c:	e58a8000 	str	r8, [r10]
    2110:	e58a3004 	str	r3, [r10, #4]
    2114:	e58d50a4 	str	r5, [sp, #164]	; 0xa4
    2118:	e58d40a0 	str	r4, [sp, #160]	; 0xa0
    211c:	ca0000ac 	bgt	23d4 <_svfprintf_r+0x13a0>
    2120:	e28aa008 	add	r10, r10, #8
    2124:	e59dc068 	ldr	r12, [sp, #104]	; 0x68
    2128:	e2844001 	add	r4, r4, #1
    212c:	e085500c 	add	r5, r5, r12
    2130:	e28d308c 	add	r3, sp, #140	; 0x8c
    2134:	e3540007 	cmp	r4, #7
    2138:	e88a1008 	stm	r10, {r3, r12}
    213c:	e58d50a4 	str	r5, [sp, #164]	; 0xa4
    2140:	e58d40a0 	str	r4, [sp, #160]	; 0xa0
    2144:	dafffeee 	ble	1d04 <_svfprintf_r+0xcd0>
    2148:	e59d0040 	ldr	r0, [sp, #64]	; 0x40
    214c:	e59d1030 	ldr	r1, [sp, #48]	; 0x30
    2150:	e28d209c 	add	r2, sp, #156	; 0x9c
    2154:	eb001154 	bl	66ac <__ssprint_r>
    2158:	e3500000 	cmp	r0, #0
    215c:	1afffc79 	bne	1348 <_svfprintf_r+0x314>
    2160:	e28da0d0 	add	r10, sp, #208	; 0xd0
    2164:	e59d50a4 	ldr	r5, [sp, #164]	; 0xa4
    2168:	eafffee6 	b	1d08 <_svfprintf_r+0xcd4>
    216c:	e59d0040 	ldr	r0, [sp, #64]	; 0x40
    2170:	e59d1030 	ldr	r1, [sp, #48]	; 0x30
    2174:	e28d209c 	add	r2, sp, #156	; 0x9c
    2178:	eb00114b 	bl	66ac <__ssprint_r>
    217c:	e3500000 	cmp	r0, #0
    2180:	0affff20 	beq	1e08 <_svfprintf_r+0xdd4>
    2184:	eafffc6f 	b	1348 <_svfprintf_r+0x314>
    2188:	e59d906c 	ldr	r9, [sp, #108]	; 0x6c
    218c:	e3a0000f 	mov	r0, #15
    2190:	e1a08224 	lsr	r8, r4, #4
    2194:	e0042000 	and	r2, r4, r0
    2198:	e1888e05 	orr	r8, r8, r5, lsl #28
    219c:	e1a0b225 	lsr	r11, r5, #4
    21a0:	e0892002 	add	r2, r9, r2
    21a4:	e1a04008 	mov	r4, r8
    21a8:	e5d23000 	ldrb	r3, [r2]
    21ac:	e1a0500b 	mov	r5, r11
    21b0:	e1a0800c 	mov	r8, r12
    21b4:	e194c005 	orrs	r12, r4, r5
    21b8:	e5c83000 	strb	r3, [r8]
    21bc:	e248c001 	sub	r12, r8, #1
    21c0:	1afffff2 	bne	2190 <_svfprintf_r+0x115c>
    21c4:	e59d301c 	ldr	r3, [sp, #28]
    21c8:	e0683003 	rsb	r3, r8, r3
    21cc:	e58d3038 	str	r3, [sp, #56]	; 0x38
    21d0:	eafffccc 	b	1508 <_svfprintf_r+0x4d4>
    21d4:	e59d0040 	ldr	r0, [sp, #64]	; 0x40
    21d8:	e59d1030 	ldr	r1, [sp, #48]	; 0x30
    21dc:	e28d209c 	add	r2, sp, #156	; 0x9c
    21e0:	eb001131 	bl	66ac <__ssprint_r>
    21e4:	e3500000 	cmp	r0, #0
    21e8:	1afffc56 	bne	1348 <_svfprintf_r+0x314>
    21ec:	e59d50a4 	ldr	r5, [sp, #164]	; 0xa4
    21f0:	e28da0d0 	add	r10, sp, #208	; 0xd0
    21f4:	eafffe68 	b	1b9c <_svfprintf_r+0xb68>
    21f8:	e59d0040 	ldr	r0, [sp, #64]	; 0x40
    21fc:	e59d1030 	ldr	r1, [sp, #48]	; 0x30
    2200:	e28d209c 	add	r2, sp, #156	; 0x9c
    2204:	eb001128 	bl	66ac <__ssprint_r>
    2208:	e3500000 	cmp	r0, #0
    220c:	1afffc4d 	bne	1348 <_svfprintf_r+0x314>
    2210:	e59d50a4 	ldr	r5, [sp, #164]	; 0xa4
    2214:	e28da0d0 	add	r10, sp, #208	; 0xd0
    2218:	eafffe6e 	b	1bd8 <_svfprintf_r+0xba4>
    221c:	e59d7080 	ldr	r7, [sp, #128]	; 0x80
    2220:	e3570000 	cmp	r7, #0
    2224:	da000177 	ble	2808 <_svfprintf_r+0x17d4>
    2228:	e59d604c 	ldr	r6, [sp, #76]	; 0x4c
    222c:	e59d4054 	ldr	r4, [sp, #84]	; 0x54
    2230:	e59dc04c 	ldr	r12, [sp, #76]	; 0x4c
    2234:	e1560004 	cmp	r6, r4
    2238:	a1a06004 	movge	r6, r4
    223c:	e3560000 	cmp	r6, #0
    2240:	e088b00c 	add	r11, r8, r12
    2244:	da000009 	ble	2270 <_svfprintf_r+0x123c>
    2248:	e59d40a0 	ldr	r4, [sp, #160]	; 0xa0
    224c:	e2844001 	add	r4, r4, #1
    2250:	e0855006 	add	r5, r5, r6
    2254:	e3540007 	cmp	r4, #7
    2258:	e58a8000 	str	r8, [r10]
    225c:	e58a6004 	str	r6, [r10, #4]
    2260:	e58d50a4 	str	r5, [sp, #164]	; 0xa4
    2264:	e58d40a0 	str	r4, [sp, #160]	; 0xa0
    2268:	d28aa008 	addle	r10, r10, #8
    226c:	ca000290 	bgt	2cb4 <_svfprintf_r+0x1c80>
    2270:	e59d4054 	ldr	r4, [sp, #84]	; 0x54
    2274:	e1c66fc6 	bic	r6, r6, r6, asr #31
    2278:	e0667004 	rsb	r7, r6, r4
    227c:	e3570000 	cmp	r7, #0
    2280:	da00008c 	ble	24b8 <_svfprintf_r+0x1484>
    2284:	e3570010 	cmp	r7, #16
    2288:	e59d40a0 	ldr	r4, [sp, #160]	; 0xa0
    228c:	e59f62e0 	ldr	r6, [pc, #736]	; 2574 <_svfprintf_r+0x1540>
    2290:	da000078 	ble	2478 <_svfprintf_r+0x1444>
    2294:	e58d8038 	str	r8, [sp, #56]	; 0x38
    2298:	e58db044 	str	r11, [sp, #68]	; 0x44
    229c:	e1a08007 	mov	r8, r7
    22a0:	e1a0b006 	mov	r11, r6
    22a4:	e3a09010 	mov	r9, #16
    22a8:	e59d7030 	ldr	r7, [sp, #48]	; 0x30
    22ac:	e59d6040 	ldr	r6, [sp, #64]	; 0x40
    22b0:	ea000002 	b	22c0 <_svfprintf_r+0x128c>
    22b4:	e2488010 	sub	r8, r8, #16
    22b8:	e3580010 	cmp	r8, #16
    22bc:	da000069 	ble	2468 <_svfprintf_r+0x1434>
    22c0:	e2844001 	add	r4, r4, #1
    22c4:	e3540007 	cmp	r4, #7
    22c8:	e2855010 	add	r5, r5, #16
    22cc:	e58ab000 	str	r11, [r10]
    22d0:	e58a9004 	str	r9, [r10, #4]
    22d4:	e58d50a4 	str	r5, [sp, #164]	; 0xa4
    22d8:	e58d40a0 	str	r4, [sp, #160]	; 0xa0
    22dc:	d28aa008 	addle	r10, r10, #8
    22e0:	dafffff3 	ble	22b4 <_svfprintf_r+0x1280>
    22e4:	e1a00006 	mov	r0, r6
    22e8:	e1a01007 	mov	r1, r7
    22ec:	e28d209c 	add	r2, sp, #156	; 0x9c
    22f0:	eb0010ed 	bl	66ac <__ssprint_r>
    22f4:	e3500000 	cmp	r0, #0
    22f8:	1afffc12 	bne	1348 <_svfprintf_r+0x314>
    22fc:	e28d40a0 	add	r4, sp, #160	; 0xa0
    2300:	e8940030 	ldm	r4, {r4, r5}
    2304:	e28da0d0 	add	r10, sp, #208	; 0xd0
    2308:	eaffffe9 	b	22b4 <_svfprintf_r+0x1280>
    230c:	e3550000 	cmp	r5, #0
    2310:	03540009 	cmpeq	r4, #9
    2314:	8a0000e4 	bhi	26ac <_svfprintf_r+0x1678>
    2318:	e28d8e11 	add	r8, sp, #272	; 0x110
    231c:	e2844030 	add	r4, r4, #48	; 0x30
    2320:	e5684041 	strb	r4, [r8, #-65]!	; 0xffffffbf
    2324:	e59dc01c 	ldr	r12, [sp, #28]
    2328:	e068c00c 	rsb	r12, r8, r12
    232c:	e58dc038 	str	r12, [sp, #56]	; 0x38
    2330:	eafffc74 	b	1508 <_svfprintf_r+0x4d4>
    2334:	e24c7001 	sub	r7, r12, #1
    2338:	e3570000 	cmp	r7, #0
    233c:	daffff78 	ble	2124 <_svfprintf_r+0x10f0>
    2340:	e3570010 	cmp	r7, #16
    2344:	e59f6228 	ldr	r6, [pc, #552]	; 2574 <_svfprintf_r+0x1540>
    2348:	da00001a 	ble	23b8 <_svfprintf_r+0x1384>
    234c:	e3a08010 	mov	r8, #16
    2350:	e59d9040 	ldr	r9, [sp, #64]	; 0x40
    2354:	e59db030 	ldr	r11, [sp, #48]	; 0x30
    2358:	ea000002 	b	2368 <_svfprintf_r+0x1334>
    235c:	e2477010 	sub	r7, r7, #16
    2360:	e3570010 	cmp	r7, #16
    2364:	da000013 	ble	23b8 <_svfprintf_r+0x1384>
    2368:	e2844001 	add	r4, r4, #1
    236c:	e3540007 	cmp	r4, #7
    2370:	e2855010 	add	r5, r5, #16
    2374:	e88a0140 	stm	r10, {r6, r8}
    2378:	e58d50a4 	str	r5, [sp, #164]	; 0xa4
    237c:	e58d40a0 	str	r4, [sp, #160]	; 0xa0
    2380:	d28aa008 	addle	r10, r10, #8
    2384:	dafffff4 	ble	235c <_svfprintf_r+0x1328>
    2388:	e1a00009 	mov	r0, r9
    238c:	e1a0100b 	mov	r1, r11
    2390:	e28d209c 	add	r2, sp, #156	; 0x9c
    2394:	eb0010c4 	bl	66ac <__ssprint_r>
    2398:	e3500000 	cmp	r0, #0
    239c:	1afffbe9 	bne	1348 <_svfprintf_r+0x314>
    23a0:	e2477010 	sub	r7, r7, #16
    23a4:	e28d40a0 	add	r4, sp, #160	; 0xa0
    23a8:	e3570010 	cmp	r7, #16
    23ac:	e8940030 	ldm	r4, {r4, r5}
    23b0:	e28da0d0 	add	r10, sp, #208	; 0xd0
    23b4:	caffffeb 	bgt	2368 <_svfprintf_r+0x1334>
    23b8:	e2844001 	add	r4, r4, #1
    23bc:	e0855007 	add	r5, r5, r7
    23c0:	e3540007 	cmp	r4, #7
    23c4:	e88a00c0 	stm	r10, {r6, r7}
    23c8:	e58d50a4 	str	r5, [sp, #164]	; 0xa4
    23cc:	e58d40a0 	str	r4, [sp, #160]	; 0xa0
    23d0:	daffff52 	ble	2120 <_svfprintf_r+0x10ec>
    23d4:	e59d0040 	ldr	r0, [sp, #64]	; 0x40
    23d8:	e59d1030 	ldr	r1, [sp, #48]	; 0x30
    23dc:	e28d209c 	add	r2, sp, #156	; 0x9c
    23e0:	eb0010b1 	bl	66ac <__ssprint_r>
    23e4:	e3500000 	cmp	r0, #0
    23e8:	1afffbd6 	bne	1348 <_svfprintf_r+0x314>
    23ec:	e28d40a0 	add	r4, sp, #160	; 0xa0
    23f0:	e28da0d0 	add	r10, sp, #208	; 0xd0
    23f4:	e8940030 	ldm	r4, {r4, r5}
    23f8:	eaffff49 	b	2124 <_svfprintf_r+0x10f0>
    23fc:	e1941005 	orrs	r1, r4, r5
    2400:	159dc020 	ldrne	r12, [sp, #32]
    2404:	13a03030 	movne	r3, #48	; 0x30
    2408:	138cc002 	orrne	r12, r12, #2
    240c:	15cd307c 	strbne	r3, [sp, #124]	; 0x7c
    2410:	15cd707d 	strbne	r7, [sp, #125]	; 0x7d
    2414:	158dc020 	strne	r12, [sp, #32]
    2418:	13a02001 	movne	r2, #1
    241c:	03a02000 	moveq	r2, #0
    2420:	e3a03002 	mov	r3, #2
    2424:	eafffcd1 	b	1770 <_svfprintf_r+0x73c>
    2428:	e2844001 	add	r4, r4, #1
    242c:	e0855007 	add	r5, r5, r7
    2430:	e3540007 	cmp	r4, #7
    2434:	e88a00c0 	stm	r10, {r6, r7}
    2438:	e58d50a4 	str	r5, [sp, #164]	; 0xa4
    243c:	e58d40a0 	str	r4, [sp, #160]	; 0xa0
    2440:	dafffe2f 	ble	1d04 <_svfprintf_r+0xcd0>
    2444:	eaffff3f 	b	2148 <_svfprintf_r+0x1114>
    2448:	e59d4048 	ldr	r4, [sp, #72]	; 0x48
    244c:	e59dc048 	ldr	r12, [sp, #72]	; 0x48
    2450:	e5943000 	ldr	r3, [r4]
    2454:	e28cc004 	add	r12, r12, #4
    2458:	e1a04003 	mov	r4, r3
    245c:	e3a05000 	mov	r5, #0
    2460:	e58dc048 	str	r12, [sp, #72]	; 0x48
    2464:	eafffcba 	b	1754 <_svfprintf_r+0x720>
    2468:	e1a07008 	mov	r7, r8
    246c:	e1a0600b 	mov	r6, r11
    2470:	e59d8038 	ldr	r8, [sp, #56]	; 0x38
    2474:	e59db044 	ldr	r11, [sp, #68]	; 0x44
    2478:	e2844001 	add	r4, r4, #1
    247c:	e0855007 	add	r5, r5, r7
    2480:	e3540007 	cmp	r4, #7
    2484:	e88a00c0 	stm	r10, {r6, r7}
    2488:	e58d50a4 	str	r5, [sp, #164]	; 0xa4
    248c:	e58d40a0 	str	r4, [sp, #160]	; 0xa0
    2490:	d28aa008 	addle	r10, r10, #8
    2494:	da000007 	ble	24b8 <_svfprintf_r+0x1484>
    2498:	e59d0040 	ldr	r0, [sp, #64]	; 0x40
    249c:	e59d1030 	ldr	r1, [sp, #48]	; 0x30
    24a0:	e28d209c 	add	r2, sp, #156	; 0x9c
    24a4:	eb001080 	bl	66ac <__ssprint_r>
    24a8:	e3500000 	cmp	r0, #0
    24ac:	1afffba5 	bne	1348 <_svfprintf_r+0x314>
    24b0:	e59d50a4 	ldr	r5, [sp, #164]	; 0xa4
    24b4:	e28da0d0 	add	r10, sp, #208	; 0xd0
    24b8:	e59d3080 	ldr	r3, [sp, #128]	; 0x80
    24bc:	e59dc04c 	ldr	r12, [sp, #76]	; 0x4c
    24c0:	e59d4054 	ldr	r4, [sp, #84]	; 0x54
    24c4:	e153000c 	cmp	r3, r12
    24c8:	e0888004 	add	r8, r8, r4
    24cc:	ba000040 	blt	25d4 <_svfprintf_r+0x15a0>
    24d0:	e59dc020 	ldr	r12, [sp, #32]
    24d4:	e31c0001 	tst	r12, #1
    24d8:	1a00003d 	bne	25d4 <_svfprintf_r+0x15a0>
    24dc:	e59d404c 	ldr	r4, [sp, #76]	; 0x4c
    24e0:	e068600b 	rsb	r6, r8, r11
    24e4:	e0633004 	rsb	r3, r3, r4
    24e8:	e1530006 	cmp	r3, r6
    24ec:	b1a06003 	movlt	r6, r3
    24f0:	a1a06006 	movge	r6, r6
    24f4:	e3560000 	cmp	r6, #0
    24f8:	da000009 	ble	2524 <_svfprintf_r+0x14f0>
    24fc:	e59d40a0 	ldr	r4, [sp, #160]	; 0xa0
    2500:	e2844001 	add	r4, r4, #1
    2504:	e0855006 	add	r5, r5, r6
    2508:	e3540007 	cmp	r4, #7
    250c:	e58a8000 	str	r8, [r10]
    2510:	e58a6004 	str	r6, [r10, #4]
    2514:	e58d50a4 	str	r5, [sp, #164]	; 0xa4
    2518:	e58d40a0 	str	r4, [sp, #160]	; 0xa0
    251c:	d28aa008 	addle	r10, r10, #8
    2520:	ca0001ec 	bgt	2cd8 <_svfprintf_r+0x1ca4>
    2524:	e1c66fc6 	bic	r6, r6, r6, asr #31
    2528:	e0667003 	rsb	r7, r6, r3
    252c:	e3570000 	cmp	r7, #0
    2530:	dafffdf4 	ble	1d08 <_svfprintf_r+0xcd4>
    2534:	e3570010 	cmp	r7, #16
    2538:	e59d40a0 	ldr	r4, [sp, #160]	; 0xa0
    253c:	e59f6030 	ldr	r6, [pc, #48]	; 2574 <_svfprintf_r+0x1540>
    2540:	daffffb8 	ble	2428 <_svfprintf_r+0x13f4>
    2544:	e3a08010 	mov	r8, #16
    2548:	e59d9040 	ldr	r9, [sp, #64]	; 0x40
    254c:	e59db030 	ldr	r11, [sp, #48]	; 0x30
    2550:	ea00000d 	b	258c <_svfprintf_r+0x1558>
    2554:	00009e5c 	.word	0x00009e5c
    2558:	00009e7c 	.word	0x00009e7c
    255c:	00009e80 	.word	0x00009e80
    2560:	00009e8c 	.word	0x00009e8c
    2564:	00009ea0 	.word	0x00009ea0
    2568:	00009e84 	.word	0x00009e84
    256c:	00009e88 	.word	0x00009e88
    2570:	00009ebc 	.word	0x00009ebc
    2574:	00009e6c 	.word	0x00009e6c
    2578:	00009eb4 	.word	0x00009eb4
    257c:	66666667 	.word	0x66666667
    2580:	e2477010 	sub	r7, r7, #16
    2584:	e3570010 	cmp	r7, #16
    2588:	daffffa6 	ble	2428 <_svfprintf_r+0x13f4>
    258c:	e2844001 	add	r4, r4, #1
    2590:	e3540007 	cmp	r4, #7
    2594:	e2855010 	add	r5, r5, #16
    2598:	e88a0140 	stm	r10, {r6, r8}
    259c:	e58d50a4 	str	r5, [sp, #164]	; 0xa4
    25a0:	e58d40a0 	str	r4, [sp, #160]	; 0xa0
    25a4:	d28aa008 	addle	r10, r10, #8
    25a8:	dafffff4 	ble	2580 <_svfprintf_r+0x154c>
    25ac:	e1a00009 	mov	r0, r9
    25b0:	e1a0100b 	mov	r1, r11
    25b4:	e28d209c 	add	r2, sp, #156	; 0x9c
    25b8:	eb00103b 	bl	66ac <__ssprint_r>
    25bc:	e3500000 	cmp	r0, #0
    25c0:	1afffb60 	bne	1348 <_svfprintf_r+0x314>
    25c4:	e28d40a0 	add	r4, sp, #160	; 0xa0
    25c8:	e8940030 	ldm	r4, {r4, r5}
    25cc:	e28da0d0 	add	r10, sp, #208	; 0xd0
    25d0:	eaffffea 	b	2580 <_svfprintf_r+0x154c>
    25d4:	e59dc05c 	ldr	r12, [sp, #92]	; 0x5c
    25d8:	e59d40a0 	ldr	r4, [sp, #160]	; 0xa0
    25dc:	e085500c 	add	r5, r5, r12
    25e0:	e59dc058 	ldr	r12, [sp, #88]	; 0x58
    25e4:	e2844001 	add	r4, r4, #1
    25e8:	e58ac000 	str	r12, [r10]
    25ec:	e59dc05c 	ldr	r12, [sp, #92]	; 0x5c
    25f0:	e3540007 	cmp	r4, #7
    25f4:	e58ac004 	str	r12, [r10, #4]
    25f8:	e58d50a4 	str	r5, [sp, #164]	; 0xa4
    25fc:	e58d40a0 	str	r4, [sp, #160]	; 0xa0
    2600:	d28aa008 	addle	r10, r10, #8
    2604:	daffffb4 	ble	24dc <_svfprintf_r+0x14a8>
    2608:	e59d0040 	ldr	r0, [sp, #64]	; 0x40
    260c:	e59d1030 	ldr	r1, [sp, #48]	; 0x30
    2610:	e28d209c 	add	r2, sp, #156	; 0x9c
    2614:	eb001024 	bl	66ac <__ssprint_r>
    2618:	e3500000 	cmp	r0, #0
    261c:	1afffb49 	bne	1348 <_svfprintf_r+0x314>
    2620:	e59d3080 	ldr	r3, [sp, #128]	; 0x80
    2624:	e59d50a4 	ldr	r5, [sp, #164]	; 0xa4
    2628:	e28da0d0 	add	r10, sp, #208	; 0xd0
    262c:	eaffffaa 	b	24dc <_svfprintf_r+0x14a8>
    2630:	e59dc020 	ldr	r12, [sp, #32]
    2634:	e31c0001 	tst	r12, #1
    2638:	1afffe92 	bne	2088 <_svfprintf_r+0x1054>
    263c:	e3a03001 	mov	r3, #1
    2640:	e3540007 	cmp	r4, #7
    2644:	e58a8000 	str	r8, [r10]
    2648:	e58a3004 	str	r3, [r10, #4]
    264c:	e58d50a4 	str	r5, [sp, #164]	; 0xa4
    2650:	e58d40a0 	str	r4, [sp, #160]	; 0xa0
    2654:	dafffeb1 	ble	2120 <_svfprintf_r+0x10ec>
    2658:	eaffff5d 	b	23d4 <_svfprintf_r+0x13a0>
    265c:	e59d0040 	ldr	r0, [sp, #64]	; 0x40
    2660:	e59d1030 	ldr	r1, [sp, #48]	; 0x30
    2664:	e28d209c 	add	r2, sp, #156	; 0x9c
    2668:	eb00100f 	bl	66ac <__ssprint_r>
    266c:	e3500000 	cmp	r0, #0
    2670:	1afffb34 	bne	1348 <_svfprintf_r+0x314>
    2674:	e28d40a0 	add	r4, sp, #160	; 0xa0
    2678:	e8940030 	ldm	r4, {r4, r5}
    267c:	e28da0d0 	add	r10, sp, #208	; 0xd0
    2680:	eafffe88 	b	20a8 <_svfprintf_r+0x1074>
    2684:	e59d0040 	ldr	r0, [sp, #64]	; 0x40
    2688:	e59d1030 	ldr	r1, [sp, #48]	; 0x30
    268c:	e28d209c 	add	r2, sp, #156	; 0x9c
    2690:	eb001005 	bl	66ac <__ssprint_r>
    2694:	e3500000 	cmp	r0, #0
    2698:	1afffb2a 	bne	1348 <_svfprintf_r+0x314>
    269c:	e28d40a0 	add	r4, sp, #160	; 0xa0
    26a0:	e8940030 	ldm	r4, {r4, r5}
    26a4:	e28da0d0 	add	r10, sp, #208	; 0xd0
    26a8:	eafffe8a 	b	20d8 <_svfprintf_r+0x10a4>
    26ac:	e28d90cf 	add	r9, sp, #207	; 0xcf
    26b0:	e1a00004 	mov	r0, r4
    26b4:	e1a01005 	mov	r1, r5
    26b8:	e3a0200a 	mov	r2, #10
    26bc:	e3a03000 	mov	r3, #0
    26c0:	eb001aba 	bl	91b0 <__aeabi_uldivmod>
    26c4:	e2822030 	add	r2, r2, #48	; 0x30
    26c8:	e5c92000 	strb	r2, [r9]
    26cc:	e1a00004 	mov	r0, r4
    26d0:	e1a01005 	mov	r1, r5
    26d4:	e3a0200a 	mov	r2, #10
    26d8:	e3a03000 	mov	r3, #0
    26dc:	eb001ab3 	bl	91b0 <__aeabi_uldivmod>
    26e0:	e1a04000 	mov	r4, r0
    26e4:	e1a05001 	mov	r5, r1
    26e8:	e1940005 	orrs	r0, r4, r5
    26ec:	e1a08009 	mov	r8, r9
    26f0:	e2499001 	sub	r9, r9, #1
    26f4:	1affffed 	bne	26b0 <_svfprintf_r+0x167c>
    26f8:	e59d301c 	ldr	r3, [sp, #28]
    26fc:	e0683003 	rsb	r3, r8, r3
    2700:	e58d3038 	str	r3, [sp, #56]	; 0x38
    2704:	eafffb7f 	b	1508 <_svfprintf_r+0x4d4>
    2708:	eb000f18 	bl	6370 <__fpclassifyd>
    270c:	e3500000 	cmp	r0, #0
    2710:	1a0000a5 	bne	29ac <_svfprintf_r+0x1978>
    2714:	e3a0c003 	mov	r12, #3
    2718:	e58d0044 	str	r0, [sp, #68]	; 0x44
    271c:	e59d4020 	ldr	r4, [sp, #32]
    2720:	e58dc028 	str	r12, [sp, #40]	; 0x28
    2724:	e51f01c4 	ldr	r0, [pc, #-452]	; 2568 <_svfprintf_r+0x1534>
    2728:	e58dc038 	str	r12, [sp, #56]	; 0x38
    272c:	e59dc044 	ldr	r12, [sp, #68]	; 0x44
    2730:	e3570047 	cmp	r7, #71	; 0x47
    2734:	e3c44080 	bic	r4, r4, #128	; 0x80
    2738:	e51f81d4 	ldr	r8, [pc, #-468]	; 256c <_svfprintf_r+0x1538>
    273c:	e58d4020 	str	r4, [sp, #32]
    2740:	d1a08000 	movle	r8, r0
    2744:	e5dd307b 	ldrb	r3, [sp, #123]	; 0x7b
    2748:	e58dc054 	str	r12, [sp, #84]	; 0x54
    274c:	eafffb75 	b	1528 <_svfprintf_r+0x4f4>
    2750:	e5d37000 	ldrb	r7, [r3]
    2754:	eafffa86 	b	1174 <_svfprintf_r+0x140>
    2758:	e59d4020 	ldr	r4, [sp, #32]
    275c:	e3140010 	tst	r4, #16
    2760:	0a0000fb 	beq	2b54 <_svfprintf_r+0x1b20>
    2764:	e59dc048 	ldr	r12, [sp, #72]	; 0x48
    2768:	e59d402c 	ldr	r4, [sp, #44]	; 0x2c
    276c:	e59c3000 	ldr	r3, [r12]
    2770:	e28cc004 	add	r12, r12, #4
    2774:	e58dc048 	str	r12, [sp, #72]	; 0x48
    2778:	e5834000 	str	r4, [r3]
    277c:	eafffa50 	b	10c4 <_svfprintf_r+0x90>
    2780:	e59d4020 	ldr	r4, [sp, #32]
    2784:	e3140040 	tst	r4, #64	; 0x40
    2788:	0a000072 	beq	2958 <_svfprintf_r+0x1924>
    278c:	e59dc048 	ldr	r12, [sp, #72]	; 0x48
    2790:	e1dc20b0 	ldrh	r2, [r12]
    2794:	eafffce8 	b	1b3c <_svfprintf_r+0xb08>
    2798:	e59d4020 	ldr	r4, [sp, #32]
    279c:	e2143040 	ands	r3, r4, #64	; 0x40
    27a0:	0a000077 	beq	2984 <_svfprintf_r+0x1950>
    27a4:	e59dc048 	ldr	r12, [sp, #72]	; 0x48
    27a8:	e1dc20b0 	ldrh	r2, [r12]
    27ac:	e3a05000 	mov	r5, #0
    27b0:	e1a04002 	mov	r4, r2
    27b4:	e28cc004 	add	r12, r12, #4
    27b8:	e0522005 	subs	r2, r2, r5
    27bc:	13a02001 	movne	r2, #1
    27c0:	e58dc048 	str	r12, [sp, #72]	; 0x48
    27c4:	e1a03001 	mov	r3, r1
    27c8:	eafffbe8 	b	1770 <_svfprintf_r+0x73c>
    27cc:	e59d4020 	ldr	r4, [sp, #32]
    27d0:	e3140040 	tst	r4, #64	; 0x40
    27d4:	0a000055 	beq	2930 <_svfprintf_r+0x18fc>
    27d8:	e59dc048 	ldr	r12, [sp, #72]	; 0x48
    27dc:	e1dc30f0 	ldrsh	r3, [r12]
    27e0:	eafffbff 	b	17e4 <_svfprintf_r+0x7b0>
    27e4:	e59d0040 	ldr	r0, [sp, #64]	; 0x40
    27e8:	e59d1030 	ldr	r1, [sp, #48]	; 0x30
    27ec:	e28d209c 	add	r2, sp, #156	; 0x9c
    27f0:	eb000fad 	bl	66ac <__ssprint_r>
    27f4:	e3500000 	cmp	r0, #0
    27f8:	1afffad2 	bne	1348 <_svfprintf_r+0x314>
    27fc:	e59d50a4 	ldr	r5, [sp, #164]	; 0xa4
    2800:	e28da0d0 	add	r10, sp, #208	; 0xd0
    2804:	eafffd98 	b	1e6c <_svfprintf_r+0xe38>
    2808:	e59d40a0 	ldr	r4, [sp, #160]	; 0xa0
    280c:	e51f32a4 	ldr	r3, [pc, #-676]	; 2570 <_svfprintf_r+0x153c>
    2810:	e2844001 	add	r4, r4, #1
    2814:	e58a3000 	str	r3, [r10]
    2818:	e2855001 	add	r5, r5, #1
    281c:	e3540007 	cmp	r4, #7
    2820:	e3a03001 	mov	r3, #1
    2824:	e58a3004 	str	r3, [r10, #4]
    2828:	e58d50a4 	str	r5, [sp, #164]	; 0xa4
    282c:	e58d40a0 	str	r4, [sp, #160]	; 0xa0
    2830:	d28aa008 	addle	r10, r10, #8
    2834:	ca0000ee 	bgt	2bf4 <_svfprintf_r+0x1bc0>
    2838:	e3570000 	cmp	r7, #0
    283c:	1a000005 	bne	2858 <_svfprintf_r+0x1824>
    2840:	e59dc04c 	ldr	r12, [sp, #76]	; 0x4c
    2844:	e35c0000 	cmp	r12, #0
    2848:	1a000002 	bne	2858 <_svfprintf_r+0x1824>
    284c:	e59d4020 	ldr	r4, [sp, #32]
    2850:	e3140001 	tst	r4, #1
    2854:	0afffd2b 	beq	1d08 <_svfprintf_r+0xcd4>
    2858:	e59dc05c 	ldr	r12, [sp, #92]	; 0x5c
    285c:	e59d40a0 	ldr	r4, [sp, #160]	; 0xa0
    2860:	e085500c 	add	r5, r5, r12
    2864:	e59dc058 	ldr	r12, [sp, #88]	; 0x58
    2868:	e2844001 	add	r4, r4, #1
    286c:	e58ac000 	str	r12, [r10]
    2870:	e59dc05c 	ldr	r12, [sp, #92]	; 0x5c
    2874:	e3540007 	cmp	r4, #7
    2878:	e58ac004 	str	r12, [r10, #4]
    287c:	e58d50a4 	str	r5, [sp, #164]	; 0xa4
    2880:	e58d40a0 	str	r4, [sp, #160]	; 0xa0
    2884:	d28aa008 	addle	r10, r10, #8
    2888:	ca0000f9 	bgt	2c74 <_svfprintf_r+0x1c40>
    288c:	e2677000 	rsb	r7, r7, #0
    2890:	e3570000 	cmp	r7, #0
    2894:	da0000f3 	ble	2c68 <_svfprintf_r+0x1c34>
    2898:	e3570010 	cmp	r7, #16
    289c:	e51f6330 	ldr	r6, [pc, #-816]	; 2574 <_svfprintf_r+0x1540>
    28a0:	da0000df 	ble	2c24 <_svfprintf_r+0x1bf0>
    28a4:	e58d8038 	str	r8, [sp, #56]	; 0x38
    28a8:	e3a09010 	mov	r9, #16
    28ac:	e1a08006 	mov	r8, r6
    28b0:	e59db040 	ldr	r11, [sp, #64]	; 0x40
    28b4:	e59d6030 	ldr	r6, [sp, #48]	; 0x30
    28b8:	ea000002 	b	28c8 <_svfprintf_r+0x1894>
    28bc:	e2477010 	sub	r7, r7, #16
    28c0:	e3570010 	cmp	r7, #16
    28c4:	da0000d4 	ble	2c1c <_svfprintf_r+0x1be8>
    28c8:	e2844001 	add	r4, r4, #1
    28cc:	e3540007 	cmp	r4, #7
    28d0:	e2855010 	add	r5, r5, #16
    28d4:	e88a0300 	stm	r10, {r8, r9}
    28d8:	e58d50a4 	str	r5, [sp, #164]	; 0xa4
    28dc:	e58d40a0 	str	r4, [sp, #160]	; 0xa0
    28e0:	d28aa008 	addle	r10, r10, #8
    28e4:	dafffff4 	ble	28bc <_svfprintf_r+0x1888>
    28e8:	e1a0000b 	mov	r0, r11
    28ec:	e1a01006 	mov	r1, r6
    28f0:	e28d209c 	add	r2, sp, #156	; 0x9c
    28f4:	eb000f6c 	bl	66ac <__ssprint_r>
    28f8:	e3500000 	cmp	r0, #0
    28fc:	1afffa91 	bne	1348 <_svfprintf_r+0x314>
    2900:	e28d40a0 	add	r4, sp, #160	; 0xa0
    2904:	e8940030 	ldm	r4, {r4, r5}
    2908:	e28da0d0 	add	r10, sp, #208	; 0xd0
    290c:	eaffffea 	b	28bc <_svfprintf_r+0x1888>
    2910:	e59d4038 	ldr	r4, [sp, #56]	; 0x38
    2914:	e1c44fc4 	bic	r4, r4, r4, asr #31
    2918:	e59dc044 	ldr	r12, [sp, #68]	; 0x44
    291c:	e58d4028 	str	r4, [sp, #40]	; 0x28
    2920:	e5dd307b 	ldrb	r3, [sp, #123]	; 0x7b
    2924:	e58d5048 	str	r5, [sp, #72]	; 0x48
    2928:	e58dc054 	str	r12, [sp, #84]	; 0x54
    292c:	eafffafd 	b	1528 <_svfprintf_r+0x4f4>
    2930:	e59d4048 	ldr	r4, [sp, #72]	; 0x48
    2934:	e59dc048 	ldr	r12, [sp, #72]	; 0x48
    2938:	e5943000 	ldr	r3, [r4]
    293c:	e28cc004 	add	r12, r12, #4
    2940:	e1a05fc3 	asr	r5, r3, #31
    2944:	e1a04003 	mov	r4, r3
    2948:	e1a02003 	mov	r2, r3
    294c:	e58dc048 	str	r12, [sp, #72]	; 0x48
    2950:	e1a03005 	mov	r3, r5
    2954:	eafffabd 	b	1450 <_svfprintf_r+0x41c>
    2958:	e59d4048 	ldr	r4, [sp, #72]	; 0x48
    295c:	e59dc048 	ldr	r12, [sp, #72]	; 0x48
    2960:	e5942000 	ldr	r2, [r4]
    2964:	e3a05000 	mov	r5, #0
    2968:	e1a04002 	mov	r4, r2
    296c:	e28cc004 	add	r12, r12, #4
    2970:	e0522005 	subs	r2, r2, r5
    2974:	13a02001 	movne	r2, #1
    2978:	e58dc048 	str	r12, [sp, #72]	; 0x48
    297c:	e3a03001 	mov	r3, #1
    2980:	eafffb7a 	b	1770 <_svfprintf_r+0x73c>
    2984:	e59d4048 	ldr	r4, [sp, #72]	; 0x48
    2988:	e59dc048 	ldr	r12, [sp, #72]	; 0x48
    298c:	e5942000 	ldr	r2, [r4]
    2990:	e3a05000 	mov	r5, #0
    2994:	e1a04002 	mov	r4, r2
    2998:	e28cc004 	add	r12, r12, #4
    299c:	e0522005 	subs	r2, r2, r5
    29a0:	13a02001 	movne	r2, #1
    29a4:	e58dc048 	str	r12, [sp, #72]	; 0x48
    29a8:	eafffb70 	b	1770 <_svfprintf_r+0x73c>
    29ac:	e3760001 	cmn	r6, #1
    29b0:	e3c7b020 	bic	r11, r7, #32
    29b4:	03a06006 	moveq	r6, #6
    29b8:	0a000003 	beq	29cc <_svfprintf_r+0x1998>
    29bc:	e35b0047 	cmp	r11, #71	; 0x47
    29c0:	1a000001 	bne	29cc <_svfprintf_r+0x1998>
    29c4:	e3560000 	cmp	r6, #0
    29c8:	03a06001 	moveq	r6, #1
    29cc:	e59d4020 	ldr	r4, [sp, #32]
    29d0:	e3550000 	cmp	r5, #0
    29d4:	e3844c01 	orr	r4, r4, #256	; 0x100
    29d8:	e58d403c 	str	r4, [sp, #60]	; 0x3c
    29dc:	b3a0c02d 	movlt	r12, #45	; 0x2d
    29e0:	a3a04000 	movge	r4, #0
    29e4:	a58d4044 	strge	r4, [sp, #68]	; 0x44
    29e8:	b2855102 	addlt	r5, r5, #-2147483648	; 0x80000000
    29ec:	b58dc044 	strlt	r12, [sp, #68]	; 0x44
    29f0:	e25b3046 	subs	r3, r11, #70	; 0x46
    29f4:	e2734000 	rsbs	r4, r3, #0
    29f8:	e0b44003 	adcs	r4, r4, r3
    29fc:	e3540000 	cmp	r4, #0
    2a00:	0a000069 	beq	2bac <_svfprintf_r+0x1b78>
    2a04:	e3a01003 	mov	r1, #3
    2a08:	e88d0042 	stm	sp, {r1, r6}
    2a0c:	e28d1080 	add	r1, sp, #128	; 0x80
    2a10:	e58d1008 	str	r1, [sp, #8]
    2a14:	e28d1084 	add	r1, sp, #132	; 0x84
    2a18:	e58d100c 	str	r1, [sp, #12]
    2a1c:	e28d1088 	add	r1, sp, #136	; 0x88
    2a20:	e1a02009 	mov	r2, r9
    2a24:	e1a03005 	mov	r3, r5
    2a28:	e58d1010 	str	r1, [sp, #16]
    2a2c:	e59d0040 	ldr	r0, [sp, #64]	; 0x40
    2a30:	eb00027c 	bl	3428 <_dtoa_r>
    2a34:	e35b0047 	cmp	r11, #71	; 0x47
    2a38:	e1a08000 	mov	r8, r0
    2a3c:	1a000002 	bne	2a4c <_svfprintf_r+0x1a18>
    2a40:	e59dc020 	ldr	r12, [sp, #32]
    2a44:	e31c0001 	tst	r12, #1
    2a48:	0a0000ba 	beq	2d38 <_svfprintf_r+0x1d04>
    2a4c:	e3540000 	cmp	r4, #0
    2a50:	e0884006 	add	r4, r8, r6
    2a54:	0a000004 	beq	2a6c <_svfprintf_r+0x1a38>
    2a58:	e5d83000 	ldrb	r3, [r8]
    2a5c:	e3530030 	cmp	r3, #48	; 0x30
    2a60:	0a00011a 	beq	2ed0 <_svfprintf_r+0x1e9c>
    2a64:	e59d3080 	ldr	r3, [sp, #128]	; 0x80
    2a68:	e0844003 	add	r4, r4, r3
    2a6c:	e1a00009 	mov	r0, r9
    2a70:	e1a01005 	mov	r1, r5
    2a74:	e3a02000 	mov	r2, #0
    2a78:	e3a03000 	mov	r3, #0
    2a7c:	eb001996 	bl	90dc <__aeabi_dcmpeq>
    2a80:	e3500000 	cmp	r0, #0
    2a84:	1a000008 	bne	2aac <_svfprintf_r+0x1a78>
    2a88:	e59d3088 	ldr	r3, [sp, #136]	; 0x88
    2a8c:	e1540003 	cmp	r4, r3
    2a90:	91a04003 	movls	r4, r3
    2a94:	9a000004 	bls	2aac <_svfprintf_r+0x1a78>
    2a98:	e3a02030 	mov	r2, #48	; 0x30
    2a9c:	e4c32001 	strb	r2, [r3], #1
    2aa0:	e1530004 	cmp	r3, r4
    2aa4:	e58d3088 	str	r3, [sp, #136]	; 0x88
    2aa8:	1afffffb 	bne	2a9c <_svfprintf_r+0x1a68>
    2aac:	e0684004 	rsb	r4, r8, r4
    2ab0:	e35b0047 	cmp	r11, #71	; 0x47
    2ab4:	e58d404c 	str	r4, [sp, #76]	; 0x4c
    2ab8:	0a0000a1 	beq	2d44 <_svfprintf_r+0x1d10>
    2abc:	e3570065 	cmp	r7, #101	; 0x65
    2ac0:	da000136 	ble	2fa0 <_svfprintf_r+0x1f6c>
    2ac4:	e3570066 	cmp	r7, #102	; 0x66
    2ac8:	e59d3080 	ldr	r3, [sp, #128]	; 0x80
    2acc:	0a0000d6 	beq	2e2c <_svfprintf_r+0x1df8>
    2ad0:	e59dc04c 	ldr	r12, [sp, #76]	; 0x4c
    2ad4:	e153000c 	cmp	r3, r12
    2ad8:	ba0000c9 	blt	2e04 <_svfprintf_r+0x1dd0>
    2adc:	e59d4020 	ldr	r4, [sp, #32]
    2ae0:	e3140001 	tst	r4, #1
    2ae4:	12834001 	addne	r4, r3, #1
    2ae8:	01c3cfc3 	biceq	r12, r3, r3, asr #31
    2aec:	11c4cfc4 	bicne	r12, r4, r4, asr #31
    2af0:	058dc028 	streq	r12, [sp, #40]	; 0x28
    2af4:	058d3038 	streq	r3, [sp, #56]	; 0x38
    2af8:	158d4038 	strne	r4, [sp, #56]	; 0x38
    2afc:	158dc028 	strne	r12, [sp, #40]	; 0x28
    2b00:	e3a07067 	mov	r7, #103	; 0x67
    2b04:	e58d3054 	str	r3, [sp, #84]	; 0x54
    2b08:	e59dc044 	ldr	r12, [sp, #68]	; 0x44
    2b0c:	e35c0000 	cmp	r12, #0
    2b10:	0a000084 	beq	2d28 <_svfprintf_r+0x1cf4>
    2b14:	e59d403c 	ldr	r4, [sp, #60]	; 0x3c
    2b18:	e3a0302d 	mov	r3, #45	; 0x2d
    2b1c:	e3a0c000 	mov	r12, #0
    2b20:	e5cd307b 	strb	r3, [sp, #123]	; 0x7b
    2b24:	e58d4020 	str	r4, [sp, #32]
    2b28:	e58dc044 	str	r12, [sp, #68]	; 0x44
    2b2c:	eafffa7f 	b	1530 <_svfprintf_r+0x4fc>
    2b30:	e59d0040 	ldr	r0, [sp, #64]	; 0x40
    2b34:	e59d1030 	ldr	r1, [sp, #48]	; 0x30
    2b38:	e28d209c 	add	r2, sp, #156	; 0x9c
    2b3c:	eb000eda 	bl	66ac <__ssprint_r>
    2b40:	e3500000 	cmp	r0, #0
    2b44:	1afff9ff 	bne	1348 <_svfprintf_r+0x314>
    2b48:	e59d50a4 	ldr	r5, [sp, #164]	; 0xa4
    2b4c:	e28da0d0 	add	r10, sp, #208	; 0xd0
    2b50:	eafffcd9 	b	1ebc <_svfprintf_r+0xe88>
    2b54:	e59d4048 	ldr	r4, [sp, #72]	; 0x48
    2b58:	e59dc020 	ldr	r12, [sp, #32]
    2b5c:	e5943000 	ldr	r3, [r4]
    2b60:	e31c0040 	tst	r12, #64	; 0x40
    2b64:	e59dc02c 	ldr	r12, [sp, #44]	; 0x2c
    2b68:	e2844004 	add	r4, r4, #4
    2b6c:	e58d4048 	str	r4, [sp, #72]	; 0x48
    2b70:	11c3c0b0 	strhne	r12, [r3]
    2b74:	0583c000 	streq	r12, [r3]
    2b78:	eafff951 	b	10c4 <_svfprintf_r+0x90>
    2b7c:	e59d0040 	ldr	r0, [sp, #64]	; 0x40
    2b80:	e3a01040 	mov	r1, #64	; 0x40
    2b84:	eb00081e 	bl	4c04 <_malloc_r>
    2b88:	e59dc030 	ldr	r12, [sp, #48]	; 0x30
    2b8c:	e3500000 	cmp	r0, #0
    2b90:	e58c0000 	str	r0, [r12]
    2b94:	e58c0010 	str	r0, [r12, #16]
    2b98:	0a0000fa 	beq	2f88 <_svfprintf_r+0x1f54>
    2b9c:	e59dc030 	ldr	r12, [sp, #48]	; 0x30
    2ba0:	e3a03040 	mov	r3, #64	; 0x40
    2ba4:	e58c3014 	str	r3, [r12, #20]
    2ba8:	eafff937 	b	108c <_svfprintf_r+0x58>
    2bac:	e35b0045 	cmp	r11, #69	; 0x45
    2bb0:	1a000091 	bne	2dfc <_svfprintf_r+0x1dc8>
    2bb4:	e2864001 	add	r4, r6, #1
    2bb8:	e3a01002 	mov	r1, #2
    2bbc:	e88d0012 	stm	sp, {r1, r4}
    2bc0:	e28d1080 	add	r1, sp, #128	; 0x80
    2bc4:	e58d1008 	str	r1, [sp, #8]
    2bc8:	e28d1084 	add	r1, sp, #132	; 0x84
    2bcc:	e58d100c 	str	r1, [sp, #12]
    2bd0:	e28d1088 	add	r1, sp, #136	; 0x88
    2bd4:	e1a02009 	mov	r2, r9
    2bd8:	e1a03005 	mov	r3, r5
    2bdc:	e58d1010 	str	r1, [sp, #16]
    2be0:	e59d0040 	ldr	r0, [sp, #64]	; 0x40
    2be4:	eb00020f 	bl	3428 <_dtoa_r>
    2be8:	e1a08000 	mov	r8, r0
    2bec:	e0804004 	add	r4, r0, r4
    2bf0:	eaffff9d 	b	2a6c <_svfprintf_r+0x1a38>
    2bf4:	e59d0040 	ldr	r0, [sp, #64]	; 0x40
    2bf8:	e59d1030 	ldr	r1, [sp, #48]	; 0x30
    2bfc:	e28d209c 	add	r2, sp, #156	; 0x9c
    2c00:	eb000ea9 	bl	66ac <__ssprint_r>
    2c04:	e3500000 	cmp	r0, #0
    2c08:	1afff9ce 	bne	1348 <_svfprintf_r+0x314>
    2c0c:	e59d7080 	ldr	r7, [sp, #128]	; 0x80
    2c10:	e59d50a4 	ldr	r5, [sp, #164]	; 0xa4
    2c14:	e28da0d0 	add	r10, sp, #208	; 0xd0
    2c18:	eaffff06 	b	2838 <_svfprintf_r+0x1804>
    2c1c:	e1a06008 	mov	r6, r8
    2c20:	e59d8038 	ldr	r8, [sp, #56]	; 0x38
    2c24:	e2844001 	add	r4, r4, #1
    2c28:	e0855007 	add	r5, r5, r7
    2c2c:	e3540007 	cmp	r4, #7
    2c30:	e88a00c0 	stm	r10, {r6, r7}
    2c34:	e58d50a4 	str	r5, [sp, #164]	; 0xa4
    2c38:	e58d40a0 	str	r4, [sp, #160]	; 0xa0
    2c3c:	d28aa008 	addle	r10, r10, #8
    2c40:	da000008 	ble	2c68 <_svfprintf_r+0x1c34>
    2c44:	e59d0040 	ldr	r0, [sp, #64]	; 0x40
    2c48:	e59d1030 	ldr	r1, [sp, #48]	; 0x30
    2c4c:	e28d209c 	add	r2, sp, #156	; 0x9c
    2c50:	eb000e95 	bl	66ac <__ssprint_r>
    2c54:	e3500000 	cmp	r0, #0
    2c58:	1afff9ba 	bne	1348 <_svfprintf_r+0x314>
    2c5c:	e28d40a0 	add	r4, sp, #160	; 0xa0
    2c60:	e8940030 	ldm	r4, {r4, r5}
    2c64:	e28da0d0 	add	r10, sp, #208	; 0xd0
    2c68:	e2844001 	add	r4, r4, #1
    2c6c:	e59dc04c 	ldr	r12, [sp, #76]	; 0x4c
    2c70:	eafffc1d 	b	1cec <_svfprintf_r+0xcb8>
    2c74:	e59d0040 	ldr	r0, [sp, #64]	; 0x40
    2c78:	e59d1030 	ldr	r1, [sp, #48]	; 0x30
    2c7c:	e28d209c 	add	r2, sp, #156	; 0x9c
    2c80:	eb000e89 	bl	66ac <__ssprint_r>
    2c84:	e3500000 	cmp	r0, #0
    2c88:	1afff9ae 	bne	1348 <_svfprintf_r+0x314>
    2c8c:	e28d40a0 	add	r4, sp, #160	; 0xa0
    2c90:	e59d7080 	ldr	r7, [sp, #128]	; 0x80
    2c94:	e8940030 	ldm	r4, {r4, r5}
    2c98:	e28da0d0 	add	r10, sp, #208	; 0xd0
    2c9c:	eafffefa 	b	288c <_svfprintf_r+0x1858>
    2ca0:	eb000e69 	bl	664c <strlen>
    2ca4:	e58d4044 	str	r4, [sp, #68]	; 0x44
    2ca8:	e58d0038 	str	r0, [sp, #56]	; 0x38
    2cac:	e1c04fc0 	bic	r4, r0, r0, asr #31
    2cb0:	eaffff18 	b	2918 <_svfprintf_r+0x18e4>
    2cb4:	e59d0040 	ldr	r0, [sp, #64]	; 0x40
    2cb8:	e59d1030 	ldr	r1, [sp, #48]	; 0x30
    2cbc:	e28d209c 	add	r2, sp, #156	; 0x9c
    2cc0:	eb000e79 	bl	66ac <__ssprint_r>
    2cc4:	e3500000 	cmp	r0, #0
    2cc8:	1afff99e 	bne	1348 <_svfprintf_r+0x314>
    2ccc:	e59d50a4 	ldr	r5, [sp, #164]	; 0xa4
    2cd0:	e28da0d0 	add	r10, sp, #208	; 0xd0
    2cd4:	eafffd65 	b	2270 <_svfprintf_r+0x123c>
    2cd8:	e59d0040 	ldr	r0, [sp, #64]	; 0x40
    2cdc:	e59d1030 	ldr	r1, [sp, #48]	; 0x30
    2ce0:	e28d209c 	add	r2, sp, #156	; 0x9c
    2ce4:	eb000e70 	bl	66ac <__ssprint_r>
    2ce8:	e3500000 	cmp	r0, #0
    2cec:	1afff995 	bne	1348 <_svfprintf_r+0x314>
    2cf0:	e59d3080 	ldr	r3, [sp, #128]	; 0x80
    2cf4:	e59dc04c 	ldr	r12, [sp, #76]	; 0x4c
    2cf8:	e59d50a4 	ldr	r5, [sp, #164]	; 0xa4
    2cfc:	e063300c 	rsb	r3, r3, r12
    2d00:	e28da0d0 	add	r10, sp, #208	; 0xd0
    2d04:	eafffe06 	b	2524 <_svfprintf_r+0x14f0>
    2d08:	e3560006 	cmp	r6, #6
    2d0c:	23a06006 	movcs	r6, #6
    2d10:	e1c64fc6 	bic	r4, r6, r6, asr #31
    2d14:	e58d6038 	str	r6, [sp, #56]	; 0x38
    2d18:	e58d4028 	str	r4, [sp, #40]	; 0x28
    2d1c:	e58d5048 	str	r5, [sp, #72]	; 0x48
    2d20:	e51f87b0 	ldr	r8, [pc, #-1968]	; 2578 <_svfprintf_r+0x1544>
    2d24:	eafffaa1 	b	17b0 <_svfprintf_r+0x77c>
    2d28:	e59dc03c 	ldr	r12, [sp, #60]	; 0x3c
    2d2c:	e5dd307b 	ldrb	r3, [sp, #123]	; 0x7b
    2d30:	e58dc020 	str	r12, [sp, #32]
    2d34:	eafff9fb 	b	1528 <_svfprintf_r+0x4f4>
    2d38:	e59d3088 	ldr	r3, [sp, #136]	; 0x88
    2d3c:	e0603003 	rsb	r3, r0, r3
    2d40:	e58d304c 	str	r3, [sp, #76]	; 0x4c
    2d44:	e59d1080 	ldr	r1, [sp, #128]	; 0x80
    2d48:	e3710003 	cmn	r1, #3
    2d4c:	e1a03001 	mov	r3, r1
    2d50:	ba000001 	blt	2d5c <_svfprintf_r+0x1d28>
    2d54:	e1560001 	cmp	r6, r1
    2d58:	aaffff5c 	bge	2ad0 <_svfprintf_r+0x1a9c>
    2d5c:	e2477002 	sub	r7, r7, #2
    2d60:	e2411001 	sub	r1, r1, #1
    2d64:	e3510000 	cmp	r1, #0
    2d68:	e58d1080 	str	r1, [sp, #128]	; 0x80
    2d6c:	b2611000 	rsblt	r1, r1, #0
    2d70:	b3a0302d 	movlt	r3, #45	; 0x2d
    2d74:	a3a0302b 	movge	r3, #43	; 0x2b
    2d78:	e3510009 	cmp	r1, #9
    2d7c:	e5cd708c 	strb	r7, [sp, #140]	; 0x8c
    2d80:	e5cd308d 	strb	r3, [sp, #141]	; 0x8d
    2d84:	ca000033 	bgt	2e58 <_svfprintf_r+0x1e24>
    2d88:	e2811030 	add	r1, r1, #48	; 0x30
    2d8c:	e3a03030 	mov	r3, #48	; 0x30
    2d90:	e5cd108f 	strb	r1, [sp, #143]	; 0x8f
    2d94:	e5cd308e 	strb	r3, [sp, #142]	; 0x8e
    2d98:	e28d3090 	add	r3, sp, #144	; 0x90
    2d9c:	e59d404c 	ldr	r4, [sp, #76]	; 0x4c
    2da0:	e28d208c 	add	r2, sp, #140	; 0x8c
    2da4:	e0622003 	rsb	r2, r2, r3
    2da8:	e084c002 	add	r12, r4, r2
    2dac:	e3540001 	cmp	r4, #1
    2db0:	e58d2068 	str	r2, [sp, #104]	; 0x68
    2db4:	e58dc038 	str	r12, [sp, #56]	; 0x38
    2db8:	da000066 	ble	2f58 <_svfprintf_r+0x1f24>
    2dbc:	e59d3038 	ldr	r3, [sp, #56]	; 0x38
    2dc0:	e2833001 	add	r3, r3, #1
    2dc4:	e1c34fc3 	bic	r4, r3, r3, asr #31
    2dc8:	e3a0c000 	mov	r12, #0
    2dcc:	e58d3038 	str	r3, [sp, #56]	; 0x38
    2dd0:	e58d4028 	str	r4, [sp, #40]	; 0x28
    2dd4:	e58dc054 	str	r12, [sp, #84]	; 0x54
    2dd8:	eaffff4a 	b	2b08 <_svfprintf_r+0x1ad4>
    2ddc:	e1c6cfc6 	bic	r12, r6, r6, asr #31
    2de0:	e58d0044 	str	r0, [sp, #68]	; 0x44
    2de4:	e58dc028 	str	r12, [sp, #40]	; 0x28
    2de8:	e5dd307b 	ldrb	r3, [sp, #123]	; 0x7b
    2dec:	e58d5048 	str	r5, [sp, #72]	; 0x48
    2df0:	e58d6038 	str	r6, [sp, #56]	; 0x38
    2df4:	e58d0054 	str	r0, [sp, #84]	; 0x54
    2df8:	eafff9ca 	b	1528 <_svfprintf_r+0x4f4>
    2dfc:	e3a01002 	mov	r1, #2
    2e00:	eaffff00 	b	2a08 <_svfprintf_r+0x19d4>
    2e04:	e3530000 	cmp	r3, #0
    2e08:	e59d404c 	ldr	r4, [sp, #76]	; 0x4c
    2e0c:	d2632002 	rsble	r2, r3, #2
    2e10:	c3a02001 	movgt	r2, #1
    2e14:	e0822004 	add	r2, r2, r4
    2e18:	e1c2cfc2 	bic	r12, r2, r2, asr #31
    2e1c:	e58d2038 	str	r2, [sp, #56]	; 0x38
    2e20:	e58dc028 	str	r12, [sp, #40]	; 0x28
    2e24:	e3a07067 	mov	r7, #103	; 0x67
    2e28:	eaffff35 	b	2b04 <_svfprintf_r+0x1ad0>
    2e2c:	e3530000 	cmp	r3, #0
    2e30:	da00003f 	ble	2f34 <_svfprintf_r+0x1f00>
    2e34:	e3560000 	cmp	r6, #0
    2e38:	1a00002e 	bne	2ef8 <_svfprintf_r+0x1ec4>
    2e3c:	e59d4020 	ldr	r4, [sp, #32]
    2e40:	e3140001 	tst	r4, #1
    2e44:	1a00002b 	bne	2ef8 <_svfprintf_r+0x1ec4>
    2e48:	e1c3cfc3 	bic	r12, r3, r3, asr #31
    2e4c:	e58dc028 	str	r12, [sp, #40]	; 0x28
    2e50:	e58d3038 	str	r3, [sp, #56]	; 0x38
    2e54:	eaffff2a 	b	2b04 <_svfprintf_r+0x1ad0>
    2e58:	e28d309a 	add	r3, sp, #154	; 0x9a
    2e5c:	e51f28e8 	ldr	r2, [pc, #-2280]	; 257c <_svfprintf_r+0x1548>
    2e60:	e0c04192 	smull	r4, r0, r2, r1
    2e64:	e1a02fc1 	asr	r2, r1, #31
    2e68:	e0622140 	rsb	r2, r2, r0, asr #2
    2e6c:	e0820102 	add	r0, r2, r2, lsl #2
    2e70:	e0410080 	sub	r0, r1, r0, lsl #1
    2e74:	e1a01002 	mov	r1, r2
    2e78:	e3510009 	cmp	r1, #9
    2e7c:	e1a02003 	mov	r2, r3
    2e80:	e2803030 	add	r3, r0, #48	; 0x30
    2e84:	e5c23000 	strb	r3, [r2]
    2e88:	e2423001 	sub	r3, r2, #1
    2e8c:	cafffff2 	bgt	2e5c <_svfprintf_r+0x1e28>
    2e90:	e28dc09b 	add	r12, sp, #155	; 0x9b
    2e94:	e2811030 	add	r1, r1, #48	; 0x30
    2e98:	e15c0003 	cmp	r12, r3
    2e9c:	e5421001 	strb	r1, [r2, #-1]
    2ea0:	9a000040 	bls	2fa8 <_svfprintf_r+0x1f74>
    2ea4:	e28d008d 	add	r0, sp, #141	; 0x8d
    2ea8:	e1a03002 	mov	r3, r2
    2eac:	ea000000 	b	2eb4 <_svfprintf_r+0x1e80>
    2eb0:	e4d31001 	ldrb	r1, [r3], #1
    2eb4:	e153000c 	cmp	r3, r12
    2eb8:	e5e01001 	strb	r1, [r0, #1]!
    2ebc:	1afffffb 	bne	2eb0 <_svfprintf_r+0x1e7c>
    2ec0:	e28dce11 	add	r12, sp, #272	; 0x110
    2ec4:	e062308c 	rsb	r3, r2, r12, lsl #1
    2ec8:	e24330f6 	sub	r3, r3, #246	; 0xf6
    2ecc:	eaffffb2 	b	2d9c <_svfprintf_r+0x1d68>
    2ed0:	e3a03000 	mov	r3, #0
    2ed4:	e1a00009 	mov	r0, r9
    2ed8:	e1a01005 	mov	r1, r5
    2edc:	e3a02000 	mov	r2, #0
    2ee0:	eb00187d 	bl	90dc <__aeabi_dcmpeq>
    2ee4:	e3500000 	cmp	r0, #0
    2ee8:	02663001 	rsbeq	r3, r6, #1
    2eec:	058d3080 	streq	r3, [sp, #128]	; 0x80
    2ef0:	0afffedc 	beq	2a68 <_svfprintf_r+0x1a34>
    2ef4:	eafffeda 	b	2a64 <_svfprintf_r+0x1a30>
    2ef8:	e2866001 	add	r6, r6, #1
    2efc:	e0836006 	add	r6, r3, r6
    2f00:	e1c64fc6 	bic	r4, r6, r6, asr #31
    2f04:	e58d6038 	str	r6, [sp, #56]	; 0x38
    2f08:	e58d4028 	str	r4, [sp, #40]	; 0x28
    2f0c:	eafffefc 	b	2b04 <_svfprintf_r+0x1ad0>
    2f10:	e59d4048 	ldr	r4, [sp, #72]	; 0x48
    2f14:	e5946000 	ldr	r6, [r4]
    2f18:	e2840004 	add	r0, r4, #4
    2f1c:	e3560000 	cmp	r6, #0
    2f20:	e5d37001 	ldrb	r7, [r3, #1]
    2f24:	e58d0048 	str	r0, [sp, #72]	; 0x48
    2f28:	e1a0300c 	mov	r3, r12
    2f2c:	b3e06000 	mvnlt	r6, #0
    2f30:	eafff88f 	b	1174 <_svfprintf_r+0x140>
    2f34:	e3560000 	cmp	r6, #0
    2f38:	1a00000d 	bne	2f74 <_svfprintf_r+0x1f40>
    2f3c:	e59dc020 	ldr	r12, [sp, #32]
    2f40:	e31c0001 	tst	r12, #1
    2f44:	1a00000a 	bne	2f74 <_svfprintf_r+0x1f40>
    2f48:	e3a04001 	mov	r4, #1
    2f4c:	e58d4028 	str	r4, [sp, #40]	; 0x28
    2f50:	e58d4038 	str	r4, [sp, #56]	; 0x38
    2f54:	eafffeea 	b	2b04 <_svfprintf_r+0x1ad0>
    2f58:	e59d4020 	ldr	r4, [sp, #32]
    2f5c:	e2143001 	ands	r3, r4, #1
    2f60:	1affff95 	bne	2dbc <_svfprintf_r+0x1d88>
    2f64:	e1cccfcc 	bic	r12, r12, r12, asr #31
    2f68:	e58dc028 	str	r12, [sp, #40]	; 0x28
    2f6c:	e58d3054 	str	r3, [sp, #84]	; 0x54
    2f70:	eafffee4 	b	2b08 <_svfprintf_r+0x1ad4>
    2f74:	e2866002 	add	r6, r6, #2
    2f78:	e1c64fc6 	bic	r4, r6, r6, asr #31
    2f7c:	e58d6038 	str	r6, [sp, #56]	; 0x38
    2f80:	e58d4028 	str	r4, [sp, #40]	; 0x28
    2f84:	eafffede 	b	2b04 <_svfprintf_r+0x1ad0>
    2f88:	e59d4040 	ldr	r4, [sp, #64]	; 0x40
    2f8c:	e3a0300c 	mov	r3, #12
    2f90:	e3e0c000 	mvn	r12, #0
    2f94:	e5843000 	str	r3, [r4]
    2f98:	e58dc02c 	str	r12, [sp, #44]	; 0x2c
    2f9c:	eafff8ef 	b	1360 <_svfprintf_r+0x32c>
    2fa0:	e59d1080 	ldr	r1, [sp, #128]	; 0x80
    2fa4:	eaffff6d 	b	2d60 <_svfprintf_r+0x1d2c>
    2fa8:	e28d308e 	add	r3, sp, #142	; 0x8e
    2fac:	eaffff7a 	b	2d9c <_svfprintf_r+0x1d68>

00002fb0 <__register_exitproc>:
    2fb0:	e59fc0e4 	ldr	r12, [pc, #228]	; 309c <__register_exitproc+0xec>
    2fb4:	e92d41f0 	push	{r4, r5, r6, r7, r8, lr}
    2fb8:	e59c4000 	ldr	r4, [r12]
    2fbc:	e594c148 	ldr	r12, [r4, #328]	; 0x148
    2fc0:	e35c0000 	cmp	r12, #0
    2fc4:	0284cf53 	addeq	r12, r4, #332	; 0x14c
    2fc8:	e59c5004 	ldr	r5, [r12, #4]
    2fcc:	0584c148 	streq	r12, [r4, #328]	; 0x148
    2fd0:	e355001f 	cmp	r5, #31
    2fd4:	e24dd010 	sub	sp, sp, #16
    2fd8:	e1a06000 	mov	r6, r0
    2fdc:	da000015 	ble	3038 <__register_exitproc+0x88>
    2fe0:	e59f00b8 	ldr	r0, [pc, #184]	; 30a0 <__register_exitproc+0xf0>
    2fe4:	e3500000 	cmp	r0, #0
    2fe8:	1a000001 	bne	2ff4 <__register_exitproc+0x44>
    2fec:	e3e00000 	mvn	r0, #0
    2ff0:	ea000018 	b	3058 <__register_exitproc+0xa8>
    2ff4:	e3a00e19 	mov	r0, #400	; 0x190
    2ff8:	e58d100c 	str	r1, [sp, #12]
    2ffc:	e58d2008 	str	r2, [sp, #8]
    3000:	e58d3004 	str	r3, [sp, #4]
    3004:	e320f000 	nop	{0}
    3008:	e250c000 	subs	r12, r0, #0
    300c:	e59d100c 	ldr	r1, [sp, #12]
    3010:	e59d2008 	ldr	r2, [sp, #8]
    3014:	e59d3004 	ldr	r3, [sp, #4]
    3018:	0afffff3 	beq	2fec <__register_exitproc+0x3c>
    301c:	e5945148 	ldr	r5, [r4, #328]	; 0x148
    3020:	e3a00000 	mov	r0, #0
    3024:	e58c0004 	str	r0, [r12, #4]
    3028:	e58c5000 	str	r5, [r12]
    302c:	e584c148 	str	r12, [r4, #328]	; 0x148
    3030:	e58c0188 	str	r0, [r12, #392]	; 0x188
    3034:	e58c018c 	str	r0, [r12, #396]	; 0x18c
    3038:	e3560000 	cmp	r6, #0
    303c:	e59c4004 	ldr	r4, [r12, #4]
    3040:	1a000007 	bne	3064 <__register_exitproc+0xb4>
    3044:	e2843002 	add	r3, r4, #2
    3048:	e2844001 	add	r4, r4, #1
    304c:	e78c1103 	str	r1, [r12, r3, lsl #2]
    3050:	e58c4004 	str	r4, [r12, #4]
    3054:	e3a00000 	mov	r0, #0
    3058:	e28dd010 	add	sp, sp, #16
    305c:	e8bd41f0 	pop	{r4, r5, r6, r7, r8, lr}
    3060:	e12fff1e 	bx	lr
    3064:	e3a00001 	mov	r0, #1
    3068:	e1a00410 	lsl	r0, r0, r4
    306c:	e08c8104 	add	r8, r12, r4, lsl #2
    3070:	e3560002 	cmp	r6, #2
    3074:	e59c7188 	ldr	r7, [r12, #392]	; 0x188
    3078:	e5883108 	str	r3, [r8, #264]	; 0x108
    307c:	059c318c 	ldreq	r3, [r12, #396]	; 0x18c
    3080:	e1877000 	orr	r7, r7, r0
    3084:	01830000 	orreq	r0, r3, r0
    3088:	e1a05008 	mov	r5, r8
    308c:	e5882088 	str	r2, [r8, #136]	; 0x88
    3090:	e58c7188 	str	r7, [r12, #392]	; 0x188
    3094:	058c018c 	streq	r0, [r12, #396]	; 0x18c
    3098:	eaffffe9 	b	3044 <__register_exitproc+0x94>
    309c:	00009e54 	.word	0x00009e54
    30a0:	00000000 	.word	0x00000000

000030a4 <__call_exitprocs>:
    30a4:	e92d4ff0 	push	{r4, r5, r6, r7, r8, r9, r10, r11, lr}
    30a8:	e59f3168 	ldr	r3, [pc, #360]	; 3218 <__call_exitprocs+0x174>
    30ac:	e5933000 	ldr	r3, [r3]
    30b0:	e24dd014 	sub	sp, sp, #20
    30b4:	e58d3004 	str	r3, [sp, #4]
    30b8:	e2833f52 	add	r3, r3, #328	; 0x148
    30bc:	e58d0008 	str	r0, [sp, #8]
    30c0:	e58d300c 	str	r3, [sp, #12]
    30c4:	e1a07001 	mov	r7, r1
    30c8:	e3a08001 	mov	r8, #1
    30cc:	e59d3004 	ldr	r3, [sp, #4]
    30d0:	e5936148 	ldr	r6, [r3, #328]	; 0x148
    30d4:	e3560000 	cmp	r6, #0
    30d8:	e59db00c 	ldr	r11, [sp, #12]
    30dc:	0a000033 	beq	31b0 <__call_exitprocs+0x10c>
    30e0:	e5965004 	ldr	r5, [r6, #4]
    30e4:	e2554001 	subs	r4, r5, #1
    30e8:	5286a088 	addpl	r10, r6, #136	; 0x88
    30ec:	5285501f 	addpl	r5, r5, #31
    30f0:	508a5105 	addpl	r5, r10, r5, lsl #2
    30f4:	5a000007 	bpl	3118 <__call_exitprocs+0x74>
    30f8:	ea000029 	b	31a4 <__call_exitprocs+0x100>
    30fc:	e5953000 	ldr	r3, [r5]
    3100:	e1530007 	cmp	r3, r7
    3104:	0a000005 	beq	3120 <__call_exitprocs+0x7c>
    3108:	e2444001 	sub	r4, r4, #1
    310c:	e3740001 	cmn	r4, #1
    3110:	e2455004 	sub	r5, r5, #4
    3114:	0a000022 	beq	31a4 <__call_exitprocs+0x100>
    3118:	e3570000 	cmp	r7, #0
    311c:	1afffff6 	bne	30fc <__call_exitprocs+0x58>
    3120:	e5963004 	ldr	r3, [r6, #4]
    3124:	e06a2005 	rsb	r2, r10, r5
    3128:	e2433001 	sub	r3, r3, #1
    312c:	e0862002 	add	r2, r6, r2
    3130:	e1530004 	cmp	r3, r4
    3134:	e5123078 	ldr	r3, [r2, #-120]	; 0xffffff88
    3138:	13a01000 	movne	r1, #0
    313c:	05864004 	streq	r4, [r6, #4]
    3140:	15021078 	strne	r1, [r2, #-120]	; 0xffffff88
    3144:	e3530000 	cmp	r3, #0
    3148:	0affffee 	beq	3108 <__call_exitprocs+0x64>
    314c:	e1a02418 	lsl	r2, r8, r4
    3150:	e5961188 	ldr	r1, [r6, #392]	; 0x188
    3154:	e1120001 	tst	r2, r1
    3158:	e5969004 	ldr	r9, [r6, #4]
    315c:	0a000016 	beq	31bc <__call_exitprocs+0x118>
    3160:	e596118c 	ldr	r1, [r6, #396]	; 0x18c
    3164:	e1120001 	tst	r2, r1
    3168:	1a000016 	bne	31c8 <__call_exitprocs+0x124>
    316c:	e59d0008 	ldr	r0, [sp, #8]
    3170:	e5151080 	ldr	r1, [r5, #-128]	; 0xffffff80
    3174:	e1a0e00f 	mov	lr, pc
    3178:	e12fff13 	bx	r3
    317c:	e5963004 	ldr	r3, [r6, #4]
    3180:	e1530009 	cmp	r3, r9
    3184:	1affffd0 	bne	30cc <__call_exitprocs+0x28>
    3188:	e59b3000 	ldr	r3, [r11]
    318c:	e1530006 	cmp	r3, r6
    3190:	1affffcd 	bne	30cc <__call_exitprocs+0x28>
    3194:	e2444001 	sub	r4, r4, #1
    3198:	e3740001 	cmn	r4, #1
    319c:	e2455004 	sub	r5, r5, #4
    31a0:	1affffdc 	bne	3118 <__call_exitprocs+0x74>
    31a4:	e59f1070 	ldr	r1, [pc, #112]	; 321c <__call_exitprocs+0x178>
    31a8:	e3510000 	cmp	r1, #0
    31ac:	1a000009 	bne	31d8 <__call_exitprocs+0x134>
    31b0:	e28dd014 	add	sp, sp, #20
    31b4:	e8bd4ff0 	pop	{r4, r5, r6, r7, r8, r9, r10, r11, lr}
    31b8:	e12fff1e 	bx	lr
    31bc:	e1a0e00f 	mov	lr, pc
    31c0:	e12fff13 	bx	r3
    31c4:	eaffffec 	b	317c <__call_exitprocs+0xd8>
    31c8:	e5150080 	ldr	r0, [r5, #-128]	; 0xffffff80
    31cc:	e1a0e00f 	mov	lr, pc
    31d0:	e12fff13 	bx	r3
    31d4:	eaffffe8 	b	317c <__call_exitprocs+0xd8>
    31d8:	e5963004 	ldr	r3, [r6, #4]
    31dc:	e3530000 	cmp	r3, #0
    31e0:	e5963000 	ldr	r3, [r6]
    31e4:	1a000008 	bne	320c <__call_exitprocs+0x168>
    31e8:	e3530000 	cmp	r3, #0
    31ec:	0a000006 	beq	320c <__call_exitprocs+0x168>
    31f0:	e1a00006 	mov	r0, r6
    31f4:	e58b3000 	str	r3, [r11]
    31f8:	e320f000 	nop	{0}
    31fc:	e59b6000 	ldr	r6, [r11]
    3200:	e3560000 	cmp	r6, #0
    3204:	1affffb5 	bne	30e0 <__call_exitprocs+0x3c>
    3208:	eaffffe8 	b	31b0 <__call_exitprocs+0x10c>
    320c:	e1a0b006 	mov	r11, r6
    3210:	e1a06003 	mov	r6, r3
    3214:	eafffff9 	b	3200 <__call_exitprocs+0x15c>
    3218:	00009e54 	.word	0x00009e54
    321c:	00000000 	.word	0x00000000

00003220 <register_fini>:
    3220:	e92d4008 	push	{r3, lr}
    3224:	e59f3010 	ldr	r3, [pc, #16]	; 323c <register_fini+0x1c>
    3228:	e3530000 	cmp	r3, #0
    322c:	159f000c 	ldrne	r0, [pc, #12]	; 3240 <register_fini+0x20>
    3230:	1bfff733 	blne	f04 <atexit>
    3234:	e8bd4008 	pop	{r3, lr}
    3238:	e12fff1e 	bx	lr
    323c:	0000a048 	.word	0x0000a048
    3240:	00004af0 	.word	0x00004af0
    3244:	00000000 	.word	0x00000000

00003248 <quorem>:
    3248:	e92d4ff8 	push	{r3, r4, r5, r6, r7, r8, r9, r10, r11, lr}
    324c:	e5903010 	ldr	r3, [r0, #16]
    3250:	e5916010 	ldr	r6, [r1, #16]
    3254:	e1560003 	cmp	r6, r3
    3258:	e1a0a000 	mov	r10, r0
    325c:	e1a05001 	mov	r5, r1
    3260:	c3a00000 	movgt	r0, #0
    3264:	ca00006d 	bgt	3420 <quorem+0x1d8>
    3268:	e2863003 	add	r3, r6, #3
    326c:	e1a03103 	lsl	r3, r3, #2
    3270:	e0819003 	add	r9, r1, r3
    3274:	e5991004 	ldr	r1, [r9, #4]
    3278:	e08a3003 	add	r3, r10, r3
    327c:	e5930004 	ldr	r0, [r3, #4]
    3280:	e2811001 	add	r1, r1, #1
    3284:	eb0014ee 	bl	8644 <__aeabi_uidiv>
    3288:	e2507000 	subs	r7, r0, #0
    328c:	e2466001 	sub	r6, r6, #1
    3290:	e2899004 	add	r9, r9, #4
    3294:	e2854014 	add	r4, r5, #20
    3298:	e28a8014 	add	r8, r10, #20
    329c:	0a000030 	beq	3364 <quorem+0x11c>
    32a0:	e3a0c000 	mov	r12, #0
    32a4:	e1a02008 	mov	r2, r8
    32a8:	e1a03004 	mov	r3, r4
    32ac:	e1a0000c 	mov	r0, r12
    32b0:	e493e004 	ldr	lr, [r3], #4
    32b4:	e1a0b80e 	lsl	r11, lr, #16
    32b8:	e1a0b82b 	lsr	r11, r11, #16
    32bc:	e1a0e82e 	lsr	lr, lr, #16
    32c0:	e02bcb97 	mla	r11, r7, r11, r12
    32c4:	e00c0e97 	mul	r12, r7, lr
    32c8:	e592e000 	ldr	lr, [r2]
    32cc:	e08cc82b 	add	r12, r12, r11, lsr #16
    32d0:	e1a0180e 	lsl	r1, lr, #16
    32d4:	e0801821 	add	r1, r0, r1, lsr #16
    32d8:	e1a0b80b 	lsl	r11, r11, #16
    32dc:	e1a0080c 	lsl	r0, r12, #16
    32e0:	e041182b 	sub	r1, r1, r11, lsr #16
    32e4:	e1a00820 	lsr	r0, r0, #16
    32e8:	e060082e 	rsb	r0, r0, lr, lsr #16
    32ec:	e1a0b801 	lsl	r11, r1, #16
    32f0:	e0800841 	add	r0, r0, r1, asr #16
    32f4:	e1a0182b 	lsr	r1, r11, #16
    32f8:	e1811800 	orr	r1, r1, r0, lsl #16
    32fc:	e1590003 	cmp	r9, r3
    3300:	e1a0c82c 	lsr	r12, r12, #16
    3304:	e1a00840 	asr	r0, r0, #16
    3308:	e4821004 	str	r1, [r2], #4
    330c:	2affffe7 	bcs	32b0 <quorem+0x68>
    3310:	e2863004 	add	r3, r6, #4
    3314:	e08a3103 	add	r3, r10, r3, lsl #2
    3318:	e5932004 	ldr	r2, [r3, #4]
    331c:	e3520000 	cmp	r2, #0
    3320:	1a00000f 	bne	3364 <quorem+0x11c>
    3324:	e1580003 	cmp	r8, r3
    3328:	e2832004 	add	r2, r3, #4
    332c:	2a00000b 	bcs	3360 <quorem+0x118>
    3330:	e5122004 	ldr	r2, [r2, #-4]
    3334:	e3520000 	cmp	r2, #0
    3338:	1a000008 	bne	3360 <quorem+0x118>
    333c:	e2433004 	sub	r3, r3, #4
    3340:	ea000003 	b	3354 <quorem+0x10c>
    3344:	e5932000 	ldr	r2, [r3]
    3348:	e3520000 	cmp	r2, #0
    334c:	e2433004 	sub	r3, r3, #4
    3350:	1a000002 	bne	3360 <quorem+0x118>
    3354:	e1580003 	cmp	r8, r3
    3358:	e2466001 	sub	r6, r6, #1
    335c:	3afffff8 	bcc	3344 <quorem+0xfc>
    3360:	e58a6010 	str	r6, [r10, #16]
    3364:	e1a0000a 	mov	r0, r10
    3368:	e1a01005 	mov	r1, r5
    336c:	eb000a8d 	bl	5da8 <__mcmp>
    3370:	e3500000 	cmp	r0, #0
    3374:	ba000028 	blt	341c <quorem+0x1d4>
    3378:	e2877001 	add	r7, r7, #1
    337c:	e1a03008 	mov	r3, r8
    3380:	e3a02000 	mov	r2, #0
    3384:	e4945004 	ldr	r5, [r4], #4
    3388:	e593c000 	ldr	r12, [r3]
    338c:	e1a01805 	lsl	r1, r5, #16
    3390:	e1a0080c 	lsl	r0, r12, #16
    3394:	e1a01821 	lsr	r1, r1, #16
    3398:	e0611820 	rsb	r1, r1, r0, lsr #16
    339c:	e0811002 	add	r1, r1, r2
    33a0:	e1a02825 	lsr	r2, r5, #16
    33a4:	e062282c 	rsb	r2, r2, r12, lsr #16
    33a8:	e1a00801 	lsl	r0, r1, #16
    33ac:	e0822841 	add	r2, r2, r1, asr #16
    33b0:	e1a01820 	lsr	r1, r0, #16
    33b4:	e1811802 	orr	r1, r1, r2, lsl #16
    33b8:	e1590004 	cmp	r9, r4
    33bc:	e1a02842 	asr	r2, r2, #16
    33c0:	e4831004 	str	r1, [r3], #4
    33c4:	2affffee 	bcs	3384 <quorem+0x13c>
    33c8:	e2863004 	add	r3, r6, #4
    33cc:	e08a3103 	add	r3, r10, r3, lsl #2
    33d0:	e5932004 	ldr	r2, [r3, #4]
    33d4:	e3520000 	cmp	r2, #0
    33d8:	1a00000f 	bne	341c <quorem+0x1d4>
    33dc:	e1580003 	cmp	r8, r3
    33e0:	e2832004 	add	r2, r3, #4
    33e4:	2a00000b 	bcs	3418 <quorem+0x1d0>
    33e8:	e5122004 	ldr	r2, [r2, #-4]
    33ec:	e3520000 	cmp	r2, #0
    33f0:	1a000008 	bne	3418 <quorem+0x1d0>
    33f4:	e2433004 	sub	r3, r3, #4
    33f8:	ea000003 	b	340c <quorem+0x1c4>
    33fc:	e5932000 	ldr	r2, [r3]
    3400:	e3520000 	cmp	r2, #0
    3404:	e2433004 	sub	r3, r3, #4
    3408:	1a000002 	bne	3418 <quorem+0x1d0>
    340c:	e1580003 	cmp	r8, r3
    3410:	e2466001 	sub	r6, r6, #1
    3414:	3afffff8 	bcc	33fc <quorem+0x1b4>
    3418:	e58a6010 	str	r6, [r10, #16]
    341c:	e1a00007 	mov	r0, r7
    3420:	e8bd4ff8 	pop	{r3, r4, r5, r6, r7, r8, r9, r10, r11, lr}
    3424:	e12fff1e 	bx	lr

00003428 <_dtoa_r>:
    3428:	e92d4ff0 	push	{r4, r5, r6, r7, r8, r9, r10, r11, lr}
    342c:	e5901040 	ldr	r1, [r0, #64]	; 0x40
    3430:	e24dd07c 	sub	sp, sp, #124	; 0x7c
    3434:	e3510000 	cmp	r1, #0
    3438:	e1a06000 	mov	r6, r0
    343c:	e59d40ac 	ldr	r4, [sp, #172]	; 0xac
    3440:	e58d2010 	str	r2, [sp, #16]
    3444:	e58d3014 	str	r3, [sp, #20]
    3448:	0a000007 	beq	346c <_dtoa_r+0x44>
    344c:	e5903044 	ldr	r3, [r0, #68]	; 0x44
    3450:	e3a02001 	mov	r2, #1
    3454:	e1a02312 	lsl	r2, r2, r3
    3458:	e5813004 	str	r3, [r1, #4]
    345c:	e5812008 	str	r2, [r1, #8]
    3460:	eb00089d 	bl	56dc <_Bfree>
    3464:	e3a03000 	mov	r3, #0
    3468:	e5863040 	str	r3, [r6, #64]	; 0x40
    346c:	e59da014 	ldr	r10, [sp, #20]
    3470:	e35a0000 	cmp	r10, #0
    3474:	b3a03001 	movlt	r3, #1
    3478:	a3a03000 	movge	r3, #0
    347c:	b5843000 	strlt	r3, [r4]
    3480:	a5843000 	strge	r3, [r4]
    3484:	e59f3570 	ldr	r3, [pc, #1392]	; 39fc <_dtoa_r+0x5d4>
    3488:	b3caa102 	biclt	r10, r10, #-2147483648	; 0x80000000
    348c:	e59f2568 	ldr	r2, [pc, #1384]	; 39fc <_dtoa_r+0x5d4>
    3490:	b1a0100a 	movlt	r1, r10
    3494:	e00a3003 	and	r3, r10, r3
    3498:	b58d1014 	strlt	r1, [sp, #20]
    349c:	e1530002 	cmp	r3, r2
    34a0:	0a000016 	beq	3500 <_dtoa_r+0xd8>
    34a4:	e28d5010 	add	r5, sp, #16
    34a8:	e8950030 	ldm	r5, {r4, r5}
    34ac:	e3a02000 	mov	r2, #0
    34b0:	e1a00004 	mov	r0, r4
    34b4:	e1a01005 	mov	r1, r5
    34b8:	e3a03000 	mov	r3, #0
    34bc:	eb001706 	bl	90dc <__aeabi_dcmpeq>
    34c0:	e3500000 	cmp	r0, #0
    34c4:	0a00001e 	beq	3544 <_dtoa_r+0x11c>
    34c8:	e59d40b0 	ldr	r4, [sp, #176]	; 0xb0
    34cc:	e59dc0a8 	ldr	r12, [sp, #168]	; 0xa8
    34d0:	e3a03001 	mov	r3, #1
    34d4:	e3540000 	cmp	r4, #0
    34d8:	e58c3000 	str	r3, [r12]
    34dc:	0a00009a 	beq	374c <_dtoa_r+0x324>
    34e0:	e59f44e8 	ldr	r4, [pc, #1256]	; 39d0 <_dtoa_r+0x5a8>
    34e4:	e59dc0b0 	ldr	r12, [sp, #176]	; 0xb0
    34e8:	e58c4000 	str	r4, [r12]
    34ec:	e2444001 	sub	r4, r4, #1
    34f0:	e1a00004 	mov	r0, r4
    34f4:	e28dd07c 	add	sp, sp, #124	; 0x7c
    34f8:	e8bd4ff0 	pop	{r4, r5, r6, r7, r8, r9, r10, r11, lr}
    34fc:	e12fff1e 	bx	lr
    3500:	e59d2010 	ldr	r2, [sp, #16]
    3504:	e59f34c8 	ldr	r3, [pc, #1224]	; 39d4 <_dtoa_r+0x5ac>
    3508:	e59d40a8 	ldr	r4, [sp, #168]	; 0xa8
    350c:	e3520000 	cmp	r2, #0
    3510:	e5843000 	str	r3, [r4]
    3514:	0a000079 	beq	3700 <_dtoa_r+0x2d8>
    3518:	e59f44b8 	ldr	r4, [pc, #1208]	; 39d8 <_dtoa_r+0x5b0>
    351c:	e59dc0b0 	ldr	r12, [sp, #176]	; 0xb0
    3520:	e35c0000 	cmp	r12, #0
    3524:	0afffff1 	beq	34f0 <_dtoa_r+0xc8>
    3528:	e5d43003 	ldrb	r3, [r4, #3]
    352c:	e59dc0b0 	ldr	r12, [sp, #176]	; 0xb0
    3530:	e3530000 	cmp	r3, #0
    3534:	12843008 	addne	r3, r4, #8
    3538:	02843003 	addeq	r3, r4, #3
    353c:	e58c3000 	str	r3, [r12]
    3540:	eaffffea 	b	34f0 <_dtoa_r+0xc8>
    3544:	e28d3074 	add	r3, sp, #116	; 0x74
    3548:	e58d3000 	str	r3, [sp]
    354c:	e28d3070 	add	r3, sp, #112	; 0x70
    3550:	e58d3004 	str	r3, [sp, #4]
    3554:	e1a00006 	mov	r0, r6
    3558:	e1a02004 	mov	r2, r4
    355c:	e1a03005 	mov	r3, r5
    3560:	eb000ac8 	bl	6088 <__d2b>
    3564:	e1a0708a 	lsl	r7, r10, #1
    3568:	e1b07aa7 	lsrs	r7, r7, #21
    356c:	e1a0b000 	mov	r11, r0
    3570:	1a00006a 	bne	3720 <_dtoa_r+0x2f8>
    3574:	e59d8070 	ldr	r8, [sp, #112]	; 0x70
    3578:	e59d7074 	ldr	r7, [sp, #116]	; 0x74
    357c:	e3e03e41 	mvn	r3, #1040	; 0x410
    3580:	e0887007 	add	r7, r8, r7
    3584:	e1570003 	cmp	r7, r3
    3588:	ba0001da 	blt	3cf8 <_dtoa_r+0x8d0>
    358c:	e2870e41 	add	r0, r7, #1040	; 0x410
    3590:	e59dc010 	ldr	r12, [sp, #16]
    3594:	e2800002 	add	r0, r0, #2
    3598:	e1a0003c 	lsr	r0, r12, r0
    359c:	e283301f 	add	r3, r3, #31
    35a0:	e0673003 	rsb	r3, r7, r3
    35a4:	e180031a 	orr	r0, r0, r10, lsl r3
    35a8:	eb001531 	bl	8a74 <__aeabi_ui2d>
    35ac:	e3a04001 	mov	r4, #1
    35b0:	e58d4060 	str	r4, [sp, #96]	; 0x60
    35b4:	e241161f 	sub	r1, r1, #32505856	; 0x1f00000
    35b8:	e2477001 	sub	r7, r7, #1
    35bc:	e3a02000 	mov	r2, #0
    35c0:	e59f3414 	ldr	r3, [pc, #1044]	; 39dc <_dtoa_r+0x5b4>
    35c4:	eb001465 	bl	8760 <__aeabi_dsub>
    35c8:	e28f3ffa 	add	r3, pc, #1000	; 0x3e8
    35cc:	e893000c 	ldm	r3, {r2, r3}
    35d0:	eb001567 	bl	8b74 <__aeabi_dmul>
    35d4:	e28f3ff9 	add	r3, pc, #996	; 0x3e4
    35d8:	e893000c 	ldm	r3, {r2, r3}
    35dc:	eb001460 	bl	8764 <__adddf3>
    35e0:	e1a04000 	mov	r4, r0
    35e4:	e1a00007 	mov	r0, r7
    35e8:	e1a05001 	mov	r5, r1
    35ec:	eb001529 	bl	8a98 <__aeabi_i2d>
    35f0:	e28f3e3d 	add	r3, pc, #976	; 0x3d0
    35f4:	e893000c 	ldm	r3, {r2, r3}
    35f8:	eb00155d 	bl	8b74 <__aeabi_dmul>
    35fc:	e1a02000 	mov	r2, r0
    3600:	e1a03001 	mov	r3, r1
    3604:	e1a00004 	mov	r0, r4
    3608:	e1a01005 	mov	r1, r5
    360c:	eb001454 	bl	8764 <__adddf3>
    3610:	e1a04000 	mov	r4, r0
    3614:	e1a05001 	mov	r5, r1
    3618:	eb0016cd 	bl	9154 <__aeabi_d2iz>
    361c:	e1a01005 	mov	r1, r5
    3620:	e1a09000 	mov	r9, r0
    3624:	e3a02000 	mov	r2, #0
    3628:	e1a00004 	mov	r0, r4
    362c:	e3a03000 	mov	r3, #0
    3630:	eb0016af 	bl	90f4 <__aeabi_dcmplt>
    3634:	e3500000 	cmp	r0, #0
    3638:	1a0001a6 	bne	3cd8 <_dtoa_r+0x8b0>
    363c:	e3590016 	cmp	r9, #22
    3640:	83a04001 	movhi	r4, #1
    3644:	858d404c 	strhi	r4, [sp, #76]	; 0x4c
    3648:	8a00000a 	bhi	3678 <_dtoa_r+0x250>
    364c:	e59f33a0 	ldr	r3, [pc, #928]	; 39f4 <_dtoa_r+0x5cc>
    3650:	e0833189 	add	r3, r3, r9, lsl #3
    3654:	e8930003 	ldm	r3, {r0, r1}
    3658:	e28d3010 	add	r3, sp, #16
    365c:	e893000c 	ldm	r3, {r2, r3}
    3660:	eb0016b5 	bl	913c <__aeabi_dcmpgt>
    3664:	e3500000 	cmp	r0, #0
    3668:	13a0c000 	movne	r12, #0
    366c:	158dc04c 	strne	r12, [sp, #76]	; 0x4c
    3670:	058d004c 	streq	r0, [sp, #76]	; 0x4c
    3674:	12499001 	subne	r9, r9, #1
    3678:	e0677008 	rsb	r7, r7, r8
    367c:	e2577001 	subs	r7, r7, #1
    3680:	42677000 	rsbmi	r7, r7, #0
    3684:	43a0c000 	movmi	r12, #0
    3688:	53a04000 	movpl	r4, #0
    368c:	458d702c 	strmi	r7, [sp, #44]	; 0x2c
    3690:	458dc028 	strmi	r12, [sp, #40]	; 0x28
    3694:	558d7028 	strpl	r7, [sp, #40]	; 0x28
    3698:	558d402c 	strpl	r4, [sp, #44]	; 0x2c
    369c:	e3590000 	cmp	r9, #0
    36a0:	ba000184 	blt	3cb8 <_dtoa_r+0x890>
    36a4:	e59dc028 	ldr	r12, [sp, #40]	; 0x28
    36a8:	e3a04000 	mov	r4, #0
    36ac:	e08cc009 	add	r12, r12, r9
    36b0:	e58dc028 	str	r12, [sp, #40]	; 0x28
    36b4:	e58d9048 	str	r9, [sp, #72]	; 0x48
    36b8:	e58d403c 	str	r4, [sp, #60]	; 0x3c
    36bc:	e59d40a0 	ldr	r4, [sp, #160]	; 0xa0
    36c0:	e3540009 	cmp	r4, #9
    36c4:	8a000022 	bhi	3754 <_dtoa_r+0x32c>
    36c8:	e3540005 	cmp	r4, #5
    36cc:	c2444004 	subgt	r4, r4, #4
    36d0:	c58d40a0 	strgt	r4, [sp, #160]	; 0xa0
    36d4:	e59dc0a0 	ldr	r12, [sp, #160]	; 0xa0
    36d8:	e24c3002 	sub	r3, r12, #2
    36dc:	c3a04000 	movgt	r4, #0
    36e0:	d3a04001 	movle	r4, #1
    36e4:	e3530003 	cmp	r3, #3
    36e8:	979ff103 	ldrls	pc, [pc, r3, lsl #2]
    36ec:	ea00001a 	b	375c <_dtoa_r+0x334>
    36f0:	00003d90 	.word	0x00003d90
    36f4:	00004128 	.word	0x00004128
    36f8:	0000411c 	.word	0x0000411c
    36fc:	000040e8 	.word	0x000040e8
    3700:	e3ca44ff 	bic	r4, r10, #-16777216	; 0xff000000
    3704:	e3c4460f 	bic	r4, r4, #15728640	; 0xf00000
    3708:	e59f32c8 	ldr	r3, [pc, #712]	; 39d8 <_dtoa_r+0x5b0>
    370c:	e59f22cc 	ldr	r2, [pc, #716]	; 39e0 <_dtoa_r+0x5b8>
    3710:	e3540000 	cmp	r4, #0
    3714:	01a04002 	moveq	r4, r2
    3718:	11a04003 	movne	r4, r3
    371c:	eaffff7e 	b	351c <_dtoa_r+0xf4>
    3720:	e3c534ff 	bic	r3, r5, #-16777216	; 0xff000000
    3724:	e3c3360f 	bic	r3, r3, #15728640	; 0xf00000
    3728:	e1a00004 	mov	r0, r4
    372c:	e38335ff 	orr	r3, r3, #1069547520	; 0x3fc00000
    3730:	e2477fff 	sub	r7, r7, #1020	; 0x3fc
    3734:	e3a04000 	mov	r4, #0
    3738:	e3831603 	orr	r1, r3, #3145728	; 0x300000
    373c:	e2477003 	sub	r7, r7, #3
    3740:	e59d8070 	ldr	r8, [sp, #112]	; 0x70
    3744:	e58d4060 	str	r4, [sp, #96]	; 0x60
    3748:	eaffff9b 	b	35bc <_dtoa_r+0x194>
    374c:	e59f4290 	ldr	r4, [pc, #656]	; 39e4 <_dtoa_r+0x5bc>
    3750:	eaffff66 	b	34f0 <_dtoa_r+0xc8>
    3754:	e3a04000 	mov	r4, #0
    3758:	e58d40a0 	str	r4, [sp, #160]	; 0xa0
    375c:	e3a04000 	mov	r4, #0
    3760:	e5864044 	str	r4, [r6, #68]	; 0x44
    3764:	e1a00006 	mov	r0, r6
    3768:	e1a01004 	mov	r1, r4
    376c:	eb0007b7 	bl	5650 <_Balloc>
    3770:	e3e0c000 	mvn	r12, #0
    3774:	e58dc044 	str	r12, [sp, #68]	; 0x44
    3778:	e58dc038 	str	r12, [sp, #56]	; 0x38
    377c:	e3a0c001 	mov	r12, #1
    3780:	e58d0024 	str	r0, [sp, #36]	; 0x24
    3784:	e5860040 	str	r0, [r6, #64]	; 0x40
    3788:	e58dc040 	str	r12, [sp, #64]	; 0x40
    378c:	e58d40a4 	str	r4, [sp, #164]	; 0xa4
    3790:	e59d3074 	ldr	r3, [sp, #116]	; 0x74
    3794:	e3530000 	cmp	r3, #0
    3798:	ba0000ab 	blt	3a4c <_dtoa_r+0x624>
    379c:	e359000e 	cmp	r9, #14
    37a0:	ca0000a9 	bgt	3a4c <_dtoa_r+0x624>
    37a4:	e59d40a4 	ldr	r4, [sp, #164]	; 0xa4
    37a8:	e59dc038 	ldr	r12, [sp, #56]	; 0x38
    37ac:	e59f3240 	ldr	r3, [pc, #576]	; 39f4 <_dtoa_r+0x5cc>
    37b0:	e1a02fa4 	lsr	r2, r4, #31
    37b4:	e35c0000 	cmp	r12, #0
    37b8:	c3a02000 	movgt	r2, #0
    37bc:	d2022001 	andle	r2, r2, #1
    37c0:	e0833189 	add	r3, r3, r9, lsl #3
    37c4:	e3520000 	cmp	r2, #0
    37c8:	e8930006 	ldm	r3, {r1, r2}
    37cc:	e58d1018 	str	r1, [sp, #24]
    37d0:	e58d201c 	str	r2, [sp, #28]
    37d4:	1a000347 	bne	44f8 <_dtoa_r+0x10d0>
    37d8:	e28d5010 	add	r5, sp, #16
    37dc:	e8950030 	ldm	r5, {r4, r5}
    37e0:	e1a03002 	mov	r3, r2
    37e4:	e1a00004 	mov	r0, r4
    37e8:	e1a02001 	mov	r2, r1
    37ec:	e1a01005 	mov	r1, r5
    37f0:	eb001583 	bl	8e04 <__aeabi_ddiv>
    37f4:	eb001656 	bl	9154 <__aeabi_d2iz>
    37f8:	e1a07000 	mov	r7, r0
    37fc:	eb0014a5 	bl	8a98 <__aeabi_i2d>
    3800:	e28d3018 	add	r3, sp, #24
    3804:	e893000c 	ldm	r3, {r2, r3}
    3808:	eb0014d9 	bl	8b74 <__aeabi_dmul>
    380c:	e1a03001 	mov	r3, r1
    3810:	e1a02000 	mov	r2, r0
    3814:	e1a01005 	mov	r1, r5
    3818:	e1a00004 	mov	r0, r4
    381c:	eb0013cf 	bl	8760 <__aeabi_dsub>
    3820:	e59dc024 	ldr	r12, [sp, #36]	; 0x24
    3824:	e2873030 	add	r3, r7, #48	; 0x30
    3828:	e4cc3001 	strb	r3, [r12], #1
    382c:	e58dc030 	str	r12, [sp, #48]	; 0x30
    3830:	e59dc038 	ldr	r12, [sp, #56]	; 0x38
    3834:	e35c0001 	cmp	r12, #1
    3838:	e1a04000 	mov	r4, r0
    383c:	e1a05001 	mov	r5, r1
    3840:	e59dc030 	ldr	r12, [sp, #48]	; 0x30
    3844:	0a000039 	beq	3930 <_dtoa_r+0x508>
    3848:	e3a02000 	mov	r2, #0
    384c:	e59f31ac 	ldr	r3, [pc, #428]	; 3a00 <_dtoa_r+0x5d8>
    3850:	eb0014c7 	bl	8b74 <__aeabi_dmul>
    3854:	e3a02000 	mov	r2, #0
    3858:	e3a03000 	mov	r3, #0
    385c:	e1a04000 	mov	r4, r0
    3860:	e1a05001 	mov	r5, r1
    3864:	eb00161c 	bl	90dc <__aeabi_dcmpeq>
    3868:	e3500000 	cmp	r0, #0
    386c:	1a00047f 	bne	4a70 <_dtoa_r+0x1648>
    3870:	e59dc024 	ldr	r12, [sp, #36]	; 0x24
    3874:	e59d1038 	ldr	r1, [sp, #56]	; 0x38
    3878:	e08c8001 	add	r8, r12, r1
    387c:	e58d9020 	str	r9, [sp, #32]
    3880:	e58d8010 	str	r8, [sp, #16]
    3884:	e28ca002 	add	r10, r12, #2
    3888:	e28d9018 	add	r9, sp, #24
    388c:	e8990300 	ldm	r9, {r8, r9}
    3890:	e58d6028 	str	r6, [sp, #40]	; 0x28
    3894:	ea000008 	b	38bc <_dtoa_r+0x494>
    3898:	eb0014b5 	bl	8b74 <__aeabi_dmul>
    389c:	e3a02000 	mov	r2, #0
    38a0:	e3a03000 	mov	r3, #0
    38a4:	e1a04000 	mov	r4, r0
    38a8:	e1a05001 	mov	r5, r1
    38ac:	eb00160a 	bl	90dc <__aeabi_dcmpeq>
    38b0:	e3500000 	cmp	r0, #0
    38b4:	e28aa001 	add	r10, r10, #1
    38b8:	1a0003af 	bne	477c <_dtoa_r+0x1354>
    38bc:	e1a02008 	mov	r2, r8
    38c0:	e1a03009 	mov	r3, r9
    38c4:	e1a00004 	mov	r0, r4
    38c8:	e1a01005 	mov	r1, r5
    38cc:	eb00154c 	bl	8e04 <__aeabi_ddiv>
    38d0:	eb00161f 	bl	9154 <__aeabi_d2iz>
    38d4:	e1a07000 	mov	r7, r0
    38d8:	eb00146e 	bl	8a98 <__aeabi_i2d>
    38dc:	e1a02008 	mov	r2, r8
    38e0:	e1a03009 	mov	r3, r9
    38e4:	eb0014a2 	bl	8b74 <__aeabi_dmul>
    38e8:	e1a02000 	mov	r2, r0
    38ec:	e1a03001 	mov	r3, r1
    38f0:	e1a00004 	mov	r0, r4
    38f4:	e1a01005 	mov	r1, r5
    38f8:	eb001398 	bl	8760 <__aeabi_dsub>
    38fc:	e59dc010 	ldr	r12, [sp, #16]
    3900:	e15a000c 	cmp	r10, r12
    3904:	e287c030 	add	r12, r7, #48	; 0x30
    3908:	e1a04000 	mov	r4, r0
    390c:	e1a05001 	mov	r5, r1
    3910:	e3a02000 	mov	r2, #0
    3914:	e59f30e4 	ldr	r3, [pc, #228]	; 3a00 <_dtoa_r+0x5d8>
    3918:	e54ac001 	strb	r12, [r10, #-1]
    391c:	e1a0600a 	mov	r6, r10
    3920:	1affffdc 	bne	3898 <_dtoa_r+0x470>
    3924:	e59d9020 	ldr	r9, [sp, #32]
    3928:	e59d6028 	ldr	r6, [sp, #40]	; 0x28
    392c:	e1a0c00a 	mov	r12, r10
    3930:	e1a02004 	mov	r2, r4
    3934:	e1a03005 	mov	r3, r5
    3938:	e1a00004 	mov	r0, r4
    393c:	e1a01005 	mov	r1, r5
    3940:	e58dc008 	str	r12, [sp, #8]
    3944:	eb001386 	bl	8764 <__adddf3>
    3948:	e1a04000 	mov	r4, r0
    394c:	e1a05001 	mov	r5, r1
    3950:	e1a02004 	mov	r2, r4
    3954:	e28d1018 	add	r1, sp, #24
    3958:	e8910003 	ldm	r1, {r0, r1}
    395c:	e1a03005 	mov	r3, r5
    3960:	eb0015e3 	bl	90f4 <__aeabi_dcmplt>
    3964:	e3500000 	cmp	r0, #0
    3968:	e59dc008 	ldr	r12, [sp, #8]
    396c:	1a00000a 	bne	399c <_dtoa_r+0x574>
    3970:	e28d1018 	add	r1, sp, #24
    3974:	e8910003 	ldm	r1, {r0, r1}
    3978:	e1a02004 	mov	r2, r4
    397c:	e1a03005 	mov	r3, r5
    3980:	e58dc008 	str	r12, [sp, #8]
    3984:	eb0015d4 	bl	90dc <__aeabi_dcmpeq>
    3988:	e3500000 	cmp	r0, #0
    398c:	e59dc008 	ldr	r12, [sp, #8]
    3990:	0a00037c 	beq	4788 <_dtoa_r+0x1360>
    3994:	e3170001 	tst	r7, #1
    3998:	0a00037a 	beq	4788 <_dtoa_r+0x1360>
    399c:	e55c8001 	ldrb	r8, [r12, #-1]
    39a0:	e59d4024 	ldr	r4, [sp, #36]	; 0x24
    39a4:	e58d9064 	str	r9, [sp, #100]	; 0x64
    39a8:	e1a0900c 	mov	r9, r12
    39ac:	e59d1030 	ldr	r1, [sp, #48]	; 0x30
    39b0:	ea000017 	b	3a14 <_dtoa_r+0x5ec>
    39b4:	e1a00000 	nop			; (mov r0, r0)
    39b8:	636f4361 	.word	0x636f4361
    39bc:	3fd287a7 	.word	0x3fd287a7
    39c0:	8b60c8b3 	.word	0x8b60c8b3
    39c4:	3fc68a28 	.word	0x3fc68a28
    39c8:	509f79fb 	.word	0x509f79fb
    39cc:	3fd34413 	.word	0x3fd34413
    39d0:	00009ebd 	.word	0x00009ebd
    39d4:	0000270f 	.word	0x0000270f
    39d8:	00009ecc 	.word	0x00009ecc
    39dc:	3ff80000 	.word	0x3ff80000
    39e0:	00009ec0 	.word	0x00009ec0
    39e4:	00009ebc 	.word	0x00009ebc
    39e8:	fffffbee 	.word	0xfffffbee
    39ec:	3ff00000 	.word	0x3ff00000
    39f0:	00009fe0 	.word	0x00009fe0
    39f4:	00009ef0 	.word	0x00009ef0
    39f8:	40140000 	.word	0x40140000
    39fc:	7ff00000 	.word	0x7ff00000
    3a00:	40240000 	.word	0x40240000
    3a04:	401c0000 	.word	0x401c0000
    3a08:	3fe00000 	.word	0x3fe00000
    3a0c:	e5598002 	ldrb	r8, [r9, #-2]
    3a10:	e1a09003 	mov	r9, r3
    3a14:	e3580039 	cmp	r8, #57	; 0x39
    3a18:	e1a02009 	mov	r2, r9
    3a1c:	e2493001 	sub	r3, r9, #1
    3a20:	1a0003c2 	bne	4930 <_dtoa_r+0x1508>
    3a24:	e1590001 	cmp	r9, r1
    3a28:	1afffff7 	bne	3a0c <_dtoa_r+0x5e4>
    3a2c:	e58d2024 	str	r2, [sp, #36]	; 0x24
    3a30:	e59dc064 	ldr	r12, [sp, #100]	; 0x64
    3a34:	e3a02030 	mov	r2, #48	; 0x30
    3a38:	e5c32000 	strb	r2, [r3]
    3a3c:	e28c9001 	add	r9, r12, #1
    3a40:	e3a08031 	mov	r8, #49	; 0x31
    3a44:	e5c38000 	strb	r8, [r3]
    3a48:	ea00008b 	b	3c7c <_dtoa_r+0x854>
    3a4c:	e59d4040 	ldr	r4, [sp, #64]	; 0x40
    3a50:	e3540000 	cmp	r4, #0
    3a54:	1a0000ac 	bne	3d0c <_dtoa_r+0x8e4>
    3a58:	e59d503c 	ldr	r5, [sp, #60]	; 0x3c
    3a5c:	e59d402c 	ldr	r4, [sp, #44]	; 0x2c
    3a60:	e59da040 	ldr	r10, [sp, #64]	; 0x40
    3a64:	e59dc028 	ldr	r12, [sp, #40]	; 0x28
    3a68:	e35c0000 	cmp	r12, #0
    3a6c:	c3540000 	cmpgt	r4, #0
    3a70:	da000009 	ble	3a9c <_dtoa_r+0x674>
    3a74:	e1a0300c 	mov	r3, r12
    3a78:	e59dc02c 	ldr	r12, [sp, #44]	; 0x2c
    3a7c:	e1530004 	cmp	r3, r4
    3a80:	a1a03004 	movge	r3, r4
    3a84:	e063c00c 	rsb	r12, r3, r12
    3a88:	e58dc02c 	str	r12, [sp, #44]	; 0x2c
    3a8c:	e59dc028 	ldr	r12, [sp, #40]	; 0x28
    3a90:	e063c00c 	rsb	r12, r3, r12
    3a94:	e58dc028 	str	r12, [sp, #40]	; 0x28
    3a98:	e0634004 	rsb	r4, r3, r4
    3a9c:	e59dc03c 	ldr	r12, [sp, #60]	; 0x3c
    3aa0:	e35c0000 	cmp	r12, #0
    3aa4:	da000015 	ble	3b00 <_dtoa_r+0x6d8>
    3aa8:	e59dc040 	ldr	r12, [sp, #64]	; 0x40
    3aac:	e35c0000 	cmp	r12, #0
    3ab0:	0a00032b 	beq	4764 <_dtoa_r+0x133c>
    3ab4:	e3550000 	cmp	r5, #0
    3ab8:	da00000d 	ble	3af4 <_dtoa_r+0x6cc>
    3abc:	e1a0100a 	mov	r1, r10
    3ac0:	e1a02005 	mov	r2, r5
    3ac4:	e1a00006 	mov	r0, r6
    3ac8:	eb000838 	bl	5bb0 <__pow5mult>
    3acc:	e1a0a000 	mov	r10, r0
    3ad0:	e1a0200b 	mov	r2, r11
    3ad4:	e1a0100a 	mov	r1, r10
    3ad8:	e1a00006 	mov	r0, r6
    3adc:	eb0007ba 	bl	59cc <__multiply>
    3ae0:	e1a0100b 	mov	r1, r11
    3ae4:	e1a07000 	mov	r7, r0
    3ae8:	e1a00006 	mov	r0, r6
    3aec:	eb0006fa 	bl	56dc <_Bfree>
    3af0:	e1a0b007 	mov	r11, r7
    3af4:	e59dc03c 	ldr	r12, [sp, #60]	; 0x3c
    3af8:	e05c2005 	subs	r2, r12, r5
    3afc:	1a00035d 	bne	4878 <_dtoa_r+0x1450>
    3b00:	e1a00006 	mov	r0, r6
    3b04:	e3a01001 	mov	r1, #1
    3b08:	eb0007a6 	bl	59a8 <__i2b>
    3b0c:	e59dc048 	ldr	r12, [sp, #72]	; 0x48
    3b10:	e35c0000 	cmp	r12, #0
    3b14:	e1a07000 	mov	r7, r0
    3b18:	da000004 	ble	3b30 <_dtoa_r+0x708>
    3b1c:	e1a01007 	mov	r1, r7
    3b20:	e1a00006 	mov	r0, r6
    3b24:	e1a0200c 	mov	r2, r12
    3b28:	eb000820 	bl	5bb0 <__pow5mult>
    3b2c:	e1a07000 	mov	r7, r0
    3b30:	e59dc0a0 	ldr	r12, [sp, #160]	; 0xa0
    3b34:	e35c0001 	cmp	r12, #1
    3b38:	da00027e 	ble	4538 <_dtoa_r+0x1110>
    3b3c:	e3a05000 	mov	r5, #0
    3b40:	e59dc048 	ldr	r12, [sp, #72]	; 0x48
    3b44:	e35c0000 	cmp	r12, #0
    3b48:	03a00001 	moveq	r0, #1
    3b4c:	1a000247 	bne	4470 <_dtoa_r+0x1048>
    3b50:	e59dc028 	ldr	r12, [sp, #40]	; 0x28
    3b54:	e080300c 	add	r3, r0, r12
    3b58:	e213301f 	ands	r3, r3, #31
    3b5c:	0a0001d4 	beq	42b4 <_dtoa_r+0xe8c>
    3b60:	e2632020 	rsb	r2, r3, #32
    3b64:	e3520004 	cmp	r2, #4
    3b68:	da0003dc 	ble	4ae0 <_dtoa_r+0x16b8>
    3b6c:	e263301c 	rsb	r3, r3, #28
    3b70:	e59dc02c 	ldr	r12, [sp, #44]	; 0x2c
    3b74:	e08cc003 	add	r12, r12, r3
    3b78:	e58dc02c 	str	r12, [sp, #44]	; 0x2c
    3b7c:	e59dc028 	ldr	r12, [sp, #40]	; 0x28
    3b80:	e08cc003 	add	r12, r12, r3
    3b84:	e58dc028 	str	r12, [sp, #40]	; 0x28
    3b88:	e0844003 	add	r4, r4, r3
    3b8c:	e59dc02c 	ldr	r12, [sp, #44]	; 0x2c
    3b90:	e35c0000 	cmp	r12, #0
    3b94:	da000004 	ble	3bac <_dtoa_r+0x784>
    3b98:	e1a0100b 	mov	r1, r11
    3b9c:	e1a00006 	mov	r0, r6
    3ba0:	e1a0200c 	mov	r2, r12
    3ba4:	eb00083e 	bl	5ca4 <__lshift>
    3ba8:	e1a0b000 	mov	r11, r0
    3bac:	e59dc028 	ldr	r12, [sp, #40]	; 0x28
    3bb0:	e35c0000 	cmp	r12, #0
    3bb4:	da000004 	ble	3bcc <_dtoa_r+0x7a4>
    3bb8:	e1a01007 	mov	r1, r7
    3bbc:	e1a00006 	mov	r0, r6
    3bc0:	e1a0200c 	mov	r2, r12
    3bc4:	eb000836 	bl	5ca4 <__lshift>
    3bc8:	e1a07000 	mov	r7, r0
    3bcc:	e59dc04c 	ldr	r12, [sp, #76]	; 0x4c
    3bd0:	e35c0000 	cmp	r12, #0
    3bd4:	1a00022b 	bne	4488 <_dtoa_r+0x1060>
    3bd8:	e59dc0a0 	ldr	r12, [sp, #160]	; 0xa0
    3bdc:	e59d1038 	ldr	r1, [sp, #56]	; 0x38
    3be0:	e35c0002 	cmp	r12, #2
    3be4:	d3a03000 	movle	r3, #0
    3be8:	c3a03001 	movgt	r3, #1
    3bec:	e3510000 	cmp	r1, #0
    3bf0:	c3a03000 	movgt	r3, #0
    3bf4:	e3530000 	cmp	r3, #0
    3bf8:	0a000170 	beq	41c0 <_dtoa_r+0xd98>
    3bfc:	e59d4038 	ldr	r4, [sp, #56]	; 0x38
    3c00:	e3540000 	cmp	r4, #0
    3c04:	1a000168 	bne	41ac <_dtoa_r+0xd84>
    3c08:	e1a01007 	mov	r1, r7
    3c0c:	e3a02005 	mov	r2, #5
    3c10:	e1a03004 	mov	r3, r4
    3c14:	e1a00006 	mov	r0, r6
    3c18:	eb0006b6 	bl	56f8 <__multadd>
    3c1c:	e1a07000 	mov	r7, r0
    3c20:	e1a01007 	mov	r1, r7
    3c24:	e1a0000b 	mov	r0, r11
    3c28:	eb00085e 	bl	5da8 <__mcmp>
    3c2c:	e3500000 	cmp	r0, #0
    3c30:	da00015d 	ble	41ac <_dtoa_r+0xd84>
    3c34:	e59d3024 	ldr	r3, [sp, #36]	; 0x24
    3c38:	e3a02031 	mov	r2, #49	; 0x31
    3c3c:	e4c32001 	strb	r2, [r3], #1
    3c40:	e59d4024 	ldr	r4, [sp, #36]	; 0x24
    3c44:	e58d3024 	str	r3, [sp, #36]	; 0x24
    3c48:	e2899001 	add	r9, r9, #1
    3c4c:	e3a05000 	mov	r5, #0
    3c50:	e1a00006 	mov	r0, r6
    3c54:	e1a01007 	mov	r1, r7
    3c58:	eb00069f 	bl	56dc <_Bfree>
    3c5c:	e35a0000 	cmp	r10, #0
    3c60:	0a000005 	beq	3c7c <_dtoa_r+0x854>
    3c64:	e155000a 	cmp	r5, r10
    3c68:	13550000 	cmpne	r5, #0
    3c6c:	1a000198 	bne	42d4 <_dtoa_r+0xeac>
    3c70:	e1a00006 	mov	r0, r6
    3c74:	e1a0100a 	mov	r1, r10
    3c78:	eb000697 	bl	56dc <_Bfree>
    3c7c:	e1a00006 	mov	r0, r6
    3c80:	e1a0100b 	mov	r1, r11
    3c84:	eb000694 	bl	56dc <_Bfree>
    3c88:	e59dc0b0 	ldr	r12, [sp, #176]	; 0xb0
    3c8c:	e35c0000 	cmp	r12, #0
    3c90:	e59dc024 	ldr	r12, [sp, #36]	; 0x24
    3c94:	e3a02000 	mov	r2, #0
    3c98:	e5cc2000 	strb	r2, [r12]
    3c9c:	e59dc0a8 	ldr	r12, [sp, #168]	; 0xa8
    3ca0:	e2893001 	add	r3, r9, #1
    3ca4:	e58c3000 	str	r3, [r12]
    3ca8:	159dc024 	ldrne	r12, [sp, #36]	; 0x24
    3cac:	159d10b0 	ldrne	r1, [sp, #176]	; 0xb0
    3cb0:	1581c000 	strne	r12, [r1]
    3cb4:	eafffe0d 	b	34f0 <_dtoa_r+0xc8>
    3cb8:	e59dc02c 	ldr	r12, [sp, #44]	; 0x2c
    3cbc:	e069c00c 	rsb	r12, r9, r12
    3cc0:	e58dc02c 	str	r12, [sp, #44]	; 0x2c
    3cc4:	e2694000 	rsb	r4, r9, #0
    3cc8:	e3a0c000 	mov	r12, #0
    3ccc:	e58d403c 	str	r4, [sp, #60]	; 0x3c
    3cd0:	e58dc048 	str	r12, [sp, #72]	; 0x48
    3cd4:	eafffe78 	b	36bc <_dtoa_r+0x294>
    3cd8:	e1a00009 	mov	r0, r9
    3cdc:	eb00136d 	bl	8a98 <__aeabi_i2d>
    3ce0:	e1a02004 	mov	r2, r4
    3ce4:	e1a03005 	mov	r3, r5
    3ce8:	eb0014fb 	bl	90dc <__aeabi_dcmpeq>
    3cec:	e3500000 	cmp	r0, #0
    3cf0:	02499001 	subeq	r9, r9, #1
    3cf4:	eafffe50 	b	363c <_dtoa_r+0x214>
    3cf8:	e51f0318 	ldr	r0, [pc, #-792]	; 39e8 <_dtoa_r+0x5c0>
    3cfc:	e59d1010 	ldr	r1, [sp, #16]
    3d00:	e0670000 	rsb	r0, r7, r0
    3d04:	e1a00011 	lsl	r0, r1, r0
    3d08:	eafffe26 	b	35a8 <_dtoa_r+0x180>
    3d0c:	e59dc0a0 	ldr	r12, [sp, #160]	; 0xa0
    3d10:	e35c0001 	cmp	r12, #1
    3d14:	da0002dc 	ble	488c <_dtoa_r+0x1464>
    3d18:	e59dc038 	ldr	r12, [sp, #56]	; 0x38
    3d1c:	e59d403c 	ldr	r4, [sp, #60]	; 0x3c
    3d20:	e24c5001 	sub	r5, r12, #1
    3d24:	e1540005 	cmp	r4, r5
    3d28:	b59dc03c 	ldrlt	r12, [sp, #60]	; 0x3c
    3d2c:	b59d4048 	ldrlt	r4, [sp, #72]	; 0x48
    3d30:	b06c3005 	rsblt	r3, r12, r5
    3d34:	e59dc038 	ldr	r12, [sp, #56]	; 0x38
    3d38:	b0844003 	addlt	r4, r4, r3
    3d3c:	a0655004 	rsbge	r5, r5, r4
    3d40:	b58d4048 	strlt	r4, [sp, #72]	; 0x48
    3d44:	b58d503c 	strlt	r5, [sp, #60]	; 0x3c
    3d48:	b3a05000 	movlt	r5, #0
    3d4c:	e35c0000 	cmp	r12, #0
    3d50:	b59d102c 	ldrlt	r1, [sp, #44]	; 0x2c
    3d54:	a59d402c 	ldrge	r4, [sp, #44]	; 0x2c
    3d58:	a59d3038 	ldrge	r3, [sp, #56]	; 0x38
    3d5c:	b06c4001 	rsblt	r4, r12, r1
    3d60:	b3a03000 	movlt	r3, #0
    3d64:	e59dc02c 	ldr	r12, [sp, #44]	; 0x2c
    3d68:	e08cc003 	add	r12, r12, r3
    3d6c:	e58dc02c 	str	r12, [sp, #44]	; 0x2c
    3d70:	e59dc028 	ldr	r12, [sp, #40]	; 0x28
    3d74:	e1a00006 	mov	r0, r6
    3d78:	e08cc003 	add	r12, r12, r3
    3d7c:	e3a01001 	mov	r1, #1
    3d80:	e58dc028 	str	r12, [sp, #40]	; 0x28
    3d84:	eb000707 	bl	59a8 <__i2b>
    3d88:	e1a0a000 	mov	r10, r0
    3d8c:	eaffff34 	b	3a64 <_dtoa_r+0x63c>
    3d90:	e3a0c000 	mov	r12, #0
    3d94:	e58dc040 	str	r12, [sp, #64]	; 0x40
    3d98:	e59d10a4 	ldr	r1, [sp, #164]	; 0xa4
    3d9c:	e3510000 	cmp	r1, #0
    3da0:	da000262 	ble	4730 <_dtoa_r+0x1308>
    3da4:	e58d1044 	str	r1, [sp, #68]	; 0x44
    3da8:	e58d1038 	str	r1, [sp, #56]	; 0x38
    3dac:	e1a08001 	mov	r8, r1
    3db0:	e351000e 	cmp	r1, #14
    3db4:	83a04000 	movhi	r4, #0
    3db8:	92044001 	andls	r4, r4, #1
    3dbc:	e3a01000 	mov	r1, #0
    3dc0:	e3580017 	cmp	r8, #23
    3dc4:	e5861044 	str	r1, [r6, #68]	; 0x44
    3dc8:	9a000008 	bls	3df0 <_dtoa_r+0x9c8>
    3dcc:	e3a02001 	mov	r2, #1
    3dd0:	e3a03004 	mov	r3, #4
    3dd4:	e1a03083 	lsl	r3, r3, #1
    3dd8:	e2830014 	add	r0, r3, #20
    3ddc:	e1500008 	cmp	r0, r8
    3de0:	e1a01002 	mov	r1, r2
    3de4:	e2822001 	add	r2, r2, #1
    3de8:	9afffff9 	bls	3dd4 <_dtoa_r+0x9ac>
    3dec:	e5861044 	str	r1, [r6, #68]	; 0x44
    3df0:	e1a00006 	mov	r0, r6
    3df4:	eb000615 	bl	5650 <_Balloc>
    3df8:	e3540000 	cmp	r4, #0
    3dfc:	e58d0024 	str	r0, [sp, #36]	; 0x24
    3e00:	e5860040 	str	r0, [r6, #64]	; 0x40
    3e04:	0afffe61 	beq	3790 <_dtoa_r+0x368>
    3e08:	e3590000 	cmp	r9, #0
    3e0c:	da000134 	ble	42e4 <_dtoa_r+0xebc>
    3e10:	e51f2424 	ldr	r2, [pc, #-1060]	; 39f4 <_dtoa_r+0x5cc>
    3e14:	e209300f 	and	r3, r9, #15
    3e18:	e1a07249 	asr	r7, r9, #4
    3e1c:	e0823183 	add	r3, r2, r3, lsl #3
    3e20:	e3170010 	tst	r7, #16
    3e24:	e8930030 	ldm	r3, {r4, r5}
    3e28:	0a000123 	beq	42bc <_dtoa_r+0xe94>
    3e2c:	e51f3444 	ldr	r3, [pc, #-1092]	; 39f0 <_dtoa_r+0x5c8>
    3e30:	e28d1010 	add	r1, sp, #16
    3e34:	e8910003 	ldm	r1, {r0, r1}
    3e38:	e2833020 	add	r3, r3, #32
    3e3c:	e893000c 	ldm	r3, {r2, r3}
    3e40:	eb0013ef 	bl	8e04 <__aeabi_ddiv>
    3e44:	e58d0030 	str	r0, [sp, #48]	; 0x30
    3e48:	e58d1034 	str	r1, [sp, #52]	; 0x34
    3e4c:	e207700f 	and	r7, r7, #15
    3e50:	e3a08003 	mov	r8, #3
    3e54:	e3570000 	cmp	r7, #0
    3e58:	0a00000c 	beq	3e90 <_dtoa_r+0xa68>
    3e5c:	e51fa474 	ldr	r10, [pc, #-1140]	; 39f0 <_dtoa_r+0x5c8>
    3e60:	e1a00004 	mov	r0, r4
    3e64:	e1a01005 	mov	r1, r5
    3e68:	e3170001 	tst	r7, #1
    3e6c:	0a000002 	beq	3e7c <_dtoa_r+0xa54>
    3e70:	e89a000c 	ldm	r10, {r2, r3}
    3e74:	eb00133e 	bl	8b74 <__aeabi_dmul>
    3e78:	e2888001 	add	r8, r8, #1
    3e7c:	e1b070c7 	asrs	r7, r7, #1
    3e80:	e28aa008 	add	r10, r10, #8
    3e84:	1afffff7 	bne	3e68 <_dtoa_r+0xa40>
    3e88:	e1a04000 	mov	r4, r0
    3e8c:	e1a05001 	mov	r5, r1
    3e90:	e28d1030 	add	r1, sp, #48	; 0x30
    3e94:	e8910003 	ldm	r1, {r0, r1}
    3e98:	e1a02004 	mov	r2, r4
    3e9c:	e1a03005 	mov	r3, r5
    3ea0:	eb0013d7 	bl	8e04 <__aeabi_ddiv>
    3ea4:	e58d0030 	str	r0, [sp, #48]	; 0x30
    3ea8:	e58d1034 	str	r1, [sp, #52]	; 0x34
    3eac:	e59d404c 	ldr	r4, [sp, #76]	; 0x4c
    3eb0:	e3540000 	cmp	r4, #0
    3eb4:	0a000006 	beq	3ed4 <_dtoa_r+0xaac>
    3eb8:	e28d1030 	add	r1, sp, #48	; 0x30
    3ebc:	e8910003 	ldm	r1, {r0, r1}
    3ec0:	e3a02000 	mov	r2, #0
    3ec4:	e51f34e0 	ldr	r3, [pc, #-1248]	; 39ec <_dtoa_r+0x5c4>
    3ec8:	eb001489 	bl	90f4 <__aeabi_dcmplt>
    3ecc:	e3500000 	cmp	r0, #0
    3ed0:	1a000235 	bne	47ac <_dtoa_r+0x1384>
    3ed4:	e1a00008 	mov	r0, r8
    3ed8:	eb0012ee 	bl	8a98 <__aeabi_i2d>
    3edc:	e28d3030 	add	r3, sp, #48	; 0x30
    3ee0:	e893000c 	ldm	r3, {r2, r3}
    3ee4:	eb001322 	bl	8b74 <__aeabi_dmul>
    3ee8:	e3a02000 	mov	r2, #0
    3eec:	e51f34f0 	ldr	r3, [pc, #-1264]	; 3a04 <_dtoa_r+0x5dc>
    3ef0:	eb00121b 	bl	8764 <__adddf3>
    3ef4:	e59dc038 	ldr	r12, [sp, #56]	; 0x38
    3ef8:	e35c0000 	cmp	r12, #0
    3efc:	e1a04000 	mov	r4, r0
    3f00:	e241550d 	sub	r5, r1, #54525952	; 0x3400000
    3f04:	0a000094 	beq	415c <_dtoa_r+0xd34>
    3f08:	e58d9064 	str	r9, [sp, #100]	; 0x64
    3f0c:	e59da038 	ldr	r10, [sp, #56]	; 0x38
    3f10:	e59dc040 	ldr	r12, [sp, #64]	; 0x40
    3f14:	e35c0000 	cmp	r12, #0
    3f18:	0a00010f 	beq	435c <_dtoa_r+0xf34>
    3f1c:	e51f3530 	ldr	r3, [pc, #-1328]	; 39f4 <_dtoa_r+0x5cc>
    3f20:	e083318a 	add	r3, r3, r10, lsl #3
    3f24:	e913000c 	ldmdb	r3, {r2, r3}
    3f28:	e3a00000 	mov	r0, #0
    3f2c:	e51f152c 	ldr	r1, [pc, #-1324]	; 3a08 <_dtoa_r+0x5e0>
    3f30:	eb0013b3 	bl	8e04 <__aeabi_ddiv>
    3f34:	e1a02004 	mov	r2, r4
    3f38:	e1a03005 	mov	r3, r5
    3f3c:	eb001207 	bl	8760 <__aeabi_dsub>
    3f40:	e58d0050 	str	r0, [sp, #80]	; 0x50
    3f44:	e58d1054 	str	r1, [sp, #84]	; 0x54
    3f48:	e28d1030 	add	r1, sp, #48	; 0x30
    3f4c:	e8910003 	ldm	r1, {r0, r1}
    3f50:	eb00147f 	bl	9154 <__aeabi_d2iz>
    3f54:	e1a07000 	mov	r7, r0
    3f58:	eb0012ce 	bl	8a98 <__aeabi_i2d>
    3f5c:	e1a02000 	mov	r2, r0
    3f60:	e1a03001 	mov	r3, r1
    3f64:	e28d1030 	add	r1, sp, #48	; 0x30
    3f68:	e8910003 	ldm	r1, {r0, r1}
    3f6c:	eb0011fb 	bl	8760 <__aeabi_dsub>
    3f70:	e2877030 	add	r7, r7, #48	; 0x30
    3f74:	e59dc024 	ldr	r12, [sp, #36]	; 0x24
    3f78:	e20780ff 	and	r8, r7, #255	; 0xff
    3f7c:	e4cc8001 	strb	r8, [r12], #1
    3f80:	e1a04000 	mov	r4, r0
    3f84:	e1a05001 	mov	r5, r1
    3f88:	e1a02004 	mov	r2, r4
    3f8c:	e28d1050 	add	r1, sp, #80	; 0x50
    3f90:	e8910003 	ldm	r1, {r0, r1}
    3f94:	e1a03005 	mov	r3, r5
    3f98:	e58dc030 	str	r12, [sp, #48]	; 0x30
    3f9c:	eb001466 	bl	913c <__aeabi_dcmpgt>
    3fa0:	e3500000 	cmp	r0, #0
    3fa4:	e59dc030 	ldr	r12, [sp, #48]	; 0x30
    3fa8:	1a0002c7 	bne	4acc <_dtoa_r+0x16a4>
    3fac:	e1a02004 	mov	r2, r4
    3fb0:	e1a03005 	mov	r3, r5
    3fb4:	e3a00000 	mov	r0, #0
    3fb8:	e51f15d4 	ldr	r1, [pc, #-1492]	; 39ec <_dtoa_r+0x5c4>
    3fbc:	e58dc008 	str	r12, [sp, #8]
    3fc0:	eb0011e6 	bl	8760 <__aeabi_dsub>
    3fc4:	e1a02000 	mov	r2, r0
    3fc8:	e1a03001 	mov	r3, r1
    3fcc:	e28d1050 	add	r1, sp, #80	; 0x50
    3fd0:	e8910003 	ldm	r1, {r0, r1}
    3fd4:	eb001458 	bl	913c <__aeabi_dcmpgt>
    3fd8:	e3500000 	cmp	r0, #0
    3fdc:	e59dc008 	ldr	r12, [sp, #8]
    3fe0:	1a000250 	bne	4928 <_dtoa_r+0x1500>
    3fe4:	e35a0001 	cmp	r10, #1
    3fe8:	dafffde8 	ble	3790 <_dtoa_r+0x368>
    3fec:	e59dc024 	ldr	r12, [sp, #36]	; 0x24
    3ff0:	e59d7030 	ldr	r7, [sp, #48]	; 0x30
    3ff4:	e08ca00a 	add	r10, r12, r10
    3ff8:	e58d906c 	str	r9, [sp, #108]	; 0x6c
    3ffc:	e58d6068 	str	r6, [sp, #104]	; 0x68
    4000:	e1a0900a 	mov	r9, r10
    4004:	e58db058 	str	r11, [sp, #88]	; 0x58
    4008:	e1a0a007 	mov	r10, r7
    400c:	e28d7050 	add	r7, sp, #80	; 0x50
    4010:	e89700c0 	ldm	r7, {r6, r7}
    4014:	ea000007 	b	4038 <_dtoa_r+0xc10>
    4018:	eb0011d0 	bl	8760 <__aeabi_dsub>
    401c:	e1a02006 	mov	r2, r6
    4020:	e1a03007 	mov	r3, r7
    4024:	eb001432 	bl	90f4 <__aeabi_dcmplt>
    4028:	e3500000 	cmp	r0, #0
    402c:	1a00023a 	bne	491c <_dtoa_r+0x14f4>
    4030:	e15a0009 	cmp	r10, r9
    4034:	0a000241 	beq	4940 <_dtoa_r+0x1518>
    4038:	e3a02000 	mov	r2, #0
    403c:	e51f3644 	ldr	r3, [pc, #-1604]	; 3a00 <_dtoa_r+0x5d8>
    4040:	e1a00006 	mov	r0, r6
    4044:	e1a01007 	mov	r1, r7
    4048:	eb0012c9 	bl	8b74 <__aeabi_dmul>
    404c:	e3a02000 	mov	r2, #0
    4050:	e51f3658 	ldr	r3, [pc, #-1624]	; 3a00 <_dtoa_r+0x5d8>
    4054:	e1a06000 	mov	r6, r0
    4058:	e1a07001 	mov	r7, r1
    405c:	e1a00004 	mov	r0, r4
    4060:	e1a01005 	mov	r1, r5
    4064:	eb0012c2 	bl	8b74 <__aeabi_dmul>
    4068:	e1a05001 	mov	r5, r1
    406c:	e1a04000 	mov	r4, r0
    4070:	eb001437 	bl	9154 <__aeabi_d2iz>
    4074:	e1a08000 	mov	r8, r0
    4078:	eb001286 	bl	8a98 <__aeabi_i2d>
    407c:	e1a02000 	mov	r2, r0
    4080:	e1a03001 	mov	r3, r1
    4084:	e1a00004 	mov	r0, r4
    4088:	e1a01005 	mov	r1, r5
    408c:	eb0011b3 	bl	8760 <__aeabi_dsub>
    4090:	e2888030 	add	r8, r8, #48	; 0x30
    4094:	e20880ff 	and	r8, r8, #255	; 0xff
    4098:	e4ca8001 	strb	r8, [r10], #1
    409c:	e1a02006 	mov	r2, r6
    40a0:	e1a03007 	mov	r3, r7
    40a4:	e1a05001 	mov	r5, r1
    40a8:	e1a04000 	mov	r4, r0
    40ac:	eb001410 	bl	90f4 <__aeabi_dcmplt>
    40b0:	e3500000 	cmp	r0, #0
    40b4:	e1a02004 	mov	r2, r4
    40b8:	e1a03005 	mov	r3, r5
    40bc:	e3a00000 	mov	r0, #0
    40c0:	e51f16dc 	ldr	r1, [pc, #-1756]	; 39ec <_dtoa_r+0x5c4>
    40c4:	e1a0b00a 	mov	r11, r10
    40c8:	0affffd2 	beq	4018 <_dtoa_r+0xbf0>
    40cc:	e59d4024 	ldr	r4, [sp, #36]	; 0x24
    40d0:	e1a0700a 	mov	r7, r10
    40d4:	e59db058 	ldr	r11, [sp, #88]	; 0x58
    40d8:	e59d6068 	ldr	r6, [sp, #104]	; 0x68
    40dc:	e59d9064 	ldr	r9, [sp, #100]	; 0x64
    40e0:	e58da024 	str	r10, [sp, #36]	; 0x24
    40e4:	eafffee4 	b	3c7c <_dtoa_r+0x854>
    40e8:	e3a0c001 	mov	r12, #1
    40ec:	e58dc040 	str	r12, [sp, #64]	; 0x40
    40f0:	e59dc0a4 	ldr	r12, [sp, #164]	; 0xa4
    40f4:	e08cc009 	add	r12, r12, r9
    40f8:	e28c8001 	add	r8, r12, #1
    40fc:	e3580000 	cmp	r8, #0
    4100:	e58dc044 	str	r12, [sp, #68]	; 0x44
    4104:	da000191 	ble	4750 <_dtoa_r+0x1328>
    4108:	e358000e 	cmp	r8, #14
    410c:	83a04000 	movhi	r4, #0
    4110:	92044001 	andls	r4, r4, #1
    4114:	e58d8038 	str	r8, [sp, #56]	; 0x38
    4118:	eaffff27 	b	3dbc <_dtoa_r+0x994>
    411c:	e3a0c001 	mov	r12, #1
    4120:	e58dc040 	str	r12, [sp, #64]	; 0x40
    4124:	eaffff1b 	b	3d98 <_dtoa_r+0x970>
    4128:	e3a0c000 	mov	r12, #0
    412c:	e58dc040 	str	r12, [sp, #64]	; 0x40
    4130:	eaffffee 	b	40f0 <_dtoa_r+0xcc8>
    4134:	e1a00008 	mov	r0, r8
    4138:	eb001256 	bl	8a98 <__aeabi_i2d>
    413c:	e28d3030 	add	r3, sp, #48	; 0x30
    4140:	e893000c 	ldm	r3, {r2, r3}
    4144:	eb00128a 	bl	8b74 <__aeabi_dmul>
    4148:	e3a02000 	mov	r2, #0
    414c:	e51f3750 	ldr	r3, [pc, #-1872]	; 3a04 <_dtoa_r+0x5dc>
    4150:	eb001183 	bl	8764 <__adddf3>
    4154:	e1a04000 	mov	r4, r0
    4158:	e241550d 	sub	r5, r1, #54525952	; 0x3400000
    415c:	e3a02000 	mov	r2, #0
    4160:	e51f3770 	ldr	r3, [pc, #-1904]	; 39f8 <_dtoa_r+0x5d0>
    4164:	e28d1030 	add	r1, sp, #48	; 0x30
    4168:	e8910003 	ldm	r1, {r0, r1}
    416c:	eb00117b 	bl	8760 <__aeabi_dsub>
    4170:	e1a02004 	mov	r2, r4
    4174:	e1a03005 	mov	r3, r5
    4178:	e1a07000 	mov	r7, r0
    417c:	e1a08001 	mov	r8, r1
    4180:	eb0013ed 	bl	913c <__aeabi_dcmpgt>
    4184:	e250a000 	subs	r10, r0, #0
    4188:	1a000070 	bne	4350 <_dtoa_r+0xf28>
    418c:	e1a02004 	mov	r2, r4
    4190:	e2853102 	add	r3, r5, #-2147483648	; 0x80000000
    4194:	e1a00007 	mov	r0, r7
    4198:	e1a01008 	mov	r1, r8
    419c:	eb0013d4 	bl	90f4 <__aeabi_dcmplt>
    41a0:	e3500000 	cmp	r0, #0
    41a4:	0afffd79 	beq	3790 <_dtoa_r+0x368>
    41a8:	e1a0700a 	mov	r7, r10
    41ac:	e59dc0a4 	ldr	r12, [sp, #164]	; 0xa4
    41b0:	e59d4024 	ldr	r4, [sp, #36]	; 0x24
    41b4:	e1e0900c 	mvn	r9, r12
    41b8:	e3a05000 	mov	r5, #0
    41bc:	eafffea3 	b	3c50 <_dtoa_r+0x828>
    41c0:	e59dc040 	ldr	r12, [sp, #64]	; 0x40
    41c4:	e35c0000 	cmp	r12, #0
    41c8:	1a0000ee 	bne	4588 <_dtoa_r+0x1160>
    41cc:	e3a04000 	mov	r4, #0
    41d0:	e59d5038 	ldr	r5, [sp, #56]	; 0x38
    41d4:	e59d8024 	ldr	r8, [sp, #36]	; 0x24
    41d8:	ea000005 	b	41f4 <_dtoa_r+0xdcc>
    41dc:	e1a0100b 	mov	r1, r11
    41e0:	e1a00006 	mov	r0, r6
    41e4:	e3a0200a 	mov	r2, #10
    41e8:	e3a03000 	mov	r3, #0
    41ec:	eb000541 	bl	56f8 <__multadd>
    41f0:	e1a0b000 	mov	r11, r0
    41f4:	e1a01007 	mov	r1, r7
    41f8:	e1a0000b 	mov	r0, r11
    41fc:	ebfffc11 	bl	3248 <quorem>
    4200:	e2800030 	add	r0, r0, #48	; 0x30
    4204:	e7c80004 	strb	r0, [r8, r4]
    4208:	e2844001 	add	r4, r4, #1
    420c:	e1540005 	cmp	r4, r5
    4210:	bafffff1 	blt	41dc <_dtoa_r+0xdb4>
    4214:	e59dc024 	ldr	r12, [sp, #36]	; 0x24
    4218:	e59d4038 	ldr	r4, [sp, #56]	; 0x38
    421c:	e1a03000 	mov	r3, r0
    4220:	e3540001 	cmp	r4, #1
    4224:	a08cc004 	addge	r12, r12, r4
    4228:	b28cc001 	addlt	r12, r12, #1
    422c:	e3a05000 	mov	r5, #0
    4230:	e1a0100b 	mov	r1, r11
    4234:	e3a02001 	mov	r2, #1
    4238:	e1a00006 	mov	r0, r6
    423c:	e58d300c 	str	r3, [sp, #12]
    4240:	e58dc008 	str	r12, [sp, #8]
    4244:	eb000696 	bl	5ca4 <__lshift>
    4248:	e1a01007 	mov	r1, r7
    424c:	e1a0b000 	mov	r11, r0
    4250:	eb0006d4 	bl	5da8 <__mcmp>
    4254:	e3500000 	cmp	r0, #0
    4258:	e59d300c 	ldr	r3, [sp, #12]
    425c:	e59dc008 	ldr	r12, [sp, #8]
    4260:	da0001ba 	ble	4950 <_dtoa_r+0x1528>
    4264:	e59d4024 	ldr	r4, [sp, #36]	; 0x24
    4268:	e2844001 	add	r4, r4, #1
    426c:	e55c3001 	ldrb	r3, [r12, #-1]
    4270:	e58d4030 	str	r4, [sp, #48]	; 0x30
    4274:	e1a0100c 	mov	r1, r12
    4278:	e59d0030 	ldr	r0, [sp, #48]	; 0x30
    427c:	ea000001 	b	4288 <_dtoa_r+0xe60>
    4280:	e5513002 	ldrb	r3, [r1, #-2]
    4284:	e1a01002 	mov	r1, r2
    4288:	e3530039 	cmp	r3, #57	; 0x39
    428c:	e2412001 	sub	r2, r1, #1
    4290:	1a0001cd 	bne	49cc <_dtoa_r+0x15a4>
    4294:	e1510000 	cmp	r1, r0
    4298:	1afffff8 	bne	4280 <_dtoa_r+0xe58>
    429c:	e3a03031 	mov	r3, #49	; 0x31
    42a0:	e59d4024 	ldr	r4, [sp, #36]	; 0x24
    42a4:	e2899001 	add	r9, r9, #1
    42a8:	e5c23000 	strb	r3, [r2]
    42ac:	e58d1024 	str	r1, [sp, #36]	; 0x24
    42b0:	eafffe66 	b	3c50 <_dtoa_r+0x828>
    42b4:	e3a0301c 	mov	r3, #28
    42b8:	eafffe2c 	b	3b70 <_dtoa_r+0x748>
    42bc:	e28d3010 	add	r3, sp, #16
    42c0:	e893000c 	ldm	r3, {r2, r3}
    42c4:	e3a08002 	mov	r8, #2
    42c8:	e58d2030 	str	r2, [sp, #48]	; 0x30
    42cc:	e58d3034 	str	r3, [sp, #52]	; 0x34
    42d0:	eafffedf 	b	3e54 <_dtoa_r+0xa2c>
    42d4:	e1a00006 	mov	r0, r6
    42d8:	e1a01005 	mov	r1, r5
    42dc:	eb0004fe 	bl	56dc <_Bfree>
    42e0:	eafffe62 	b	3c70 <_dtoa_r+0x848>
    42e4:	e2694000 	rsb	r4, r9, #0
    42e8:	e3540000 	cmp	r4, #0
    42ec:	0a000128 	beq	4794 <_dtoa_r+0x136c>
    42f0:	e51f3904 	ldr	r3, [pc, #-2308]	; 39f4 <_dtoa_r+0x5cc>
    42f4:	e204200f 	and	r2, r4, #15
    42f8:	e0833182 	add	r3, r3, r2, lsl #3
    42fc:	e28d1010 	add	r1, sp, #16
    4300:	e8910003 	ldm	r1, {r0, r1}
    4304:	e893000c 	ldm	r3, {r2, r3}
    4308:	eb001219 	bl	8b74 <__aeabi_dmul>
    430c:	e1b04244 	asrs	r4, r4, #4
    4310:	e58d0030 	str	r0, [sp, #48]	; 0x30
    4314:	e58d1034 	str	r1, [sp, #52]	; 0x34
    4318:	0a0001d2 	beq	4a68 <_dtoa_r+0x1640>
    431c:	e51f5934 	ldr	r5, [pc, #-2356]	; 39f0 <_dtoa_r+0x5c8>
    4320:	e3a08002 	mov	r8, #2
    4324:	e3140001 	tst	r4, #1
    4328:	0a000002 	beq	4338 <_dtoa_r+0xf10>
    432c:	e895000c 	ldm	r5, {r2, r3}
    4330:	eb00120f 	bl	8b74 <__aeabi_dmul>
    4334:	e2888001 	add	r8, r8, #1
    4338:	e1b040c4 	asrs	r4, r4, #1
    433c:	e2855008 	add	r5, r5, #8
    4340:	1afffff7 	bne	4324 <_dtoa_r+0xefc>
    4344:	e58d0030 	str	r0, [sp, #48]	; 0x30
    4348:	e58d1034 	str	r1, [sp, #52]	; 0x34
    434c:	eafffed6 	b	3eac <_dtoa_r+0xa84>
    4350:	e3a07000 	mov	r7, #0
    4354:	e1a0a007 	mov	r10, r7
    4358:	eafffe35 	b	3c34 <_dtoa_r+0x80c>
    435c:	e51f1970 	ldr	r1, [pc, #-2416]	; 39f4 <_dtoa_r+0x5cc>
    4360:	e24ac001 	sub	r12, r10, #1
    4364:	e081118c 	add	r1, r1, r12, lsl #3
    4368:	e1a02004 	mov	r2, r4
    436c:	e1a03005 	mov	r3, r5
    4370:	e8910003 	ldm	r1, {r0, r1}
    4374:	e58dc050 	str	r12, [sp, #80]	; 0x50
    4378:	eb0011fd 	bl	8b74 <__aeabi_dmul>
    437c:	e58d0058 	str	r0, [sp, #88]	; 0x58
    4380:	e58d105c 	str	r1, [sp, #92]	; 0x5c
    4384:	e28d1030 	add	r1, sp, #48	; 0x30
    4388:	e8910003 	ldm	r1, {r0, r1}
    438c:	eb001370 	bl	9154 <__aeabi_d2iz>
    4390:	e1a07000 	mov	r7, r0
    4394:	eb0011bf 	bl	8a98 <__aeabi_i2d>
    4398:	e1a02000 	mov	r2, r0
    439c:	e1a03001 	mov	r3, r1
    43a0:	e28d1030 	add	r1, sp, #48	; 0x30
    43a4:	e8910003 	ldm	r1, {r0, r1}
    43a8:	eb0010ec 	bl	8760 <__aeabi_dsub>
    43ac:	e59dc024 	ldr	r12, [sp, #36]	; 0x24
    43b0:	e2877030 	add	r7, r7, #48	; 0x30
    43b4:	e4cc7001 	strb	r7, [r12], #1
    43b8:	e35a0001 	cmp	r10, #1
    43bc:	e1a04000 	mov	r4, r0
    43c0:	e1a05001 	mov	r5, r1
    43c4:	e58dc030 	str	r12, [sp, #48]	; 0x30
    43c8:	0a000019 	beq	4434 <_dtoa_r+0x100c>
    43cc:	e59dc024 	ldr	r12, [sp, #36]	; 0x24
    43d0:	e24c3001 	sub	r3, r12, #1
    43d4:	e1a0700c 	mov	r7, r12
    43d8:	e083a00a 	add	r10, r3, r10
    43dc:	e3a02000 	mov	r2, #0
    43e0:	e51f39e8 	ldr	r3, [pc, #-2536]	; 3a00 <_dtoa_r+0x5d8>
    43e4:	eb0011e2 	bl	8b74 <__aeabi_dmul>
    43e8:	e1a05001 	mov	r5, r1
    43ec:	e1a04000 	mov	r4, r0
    43f0:	eb001357 	bl	9154 <__aeabi_d2iz>
    43f4:	e1a08000 	mov	r8, r0
    43f8:	eb0011a6 	bl	8a98 <__aeabi_i2d>
    43fc:	e2888030 	add	r8, r8, #48	; 0x30
    4400:	e1a02000 	mov	r2, r0
    4404:	e1a03001 	mov	r3, r1
    4408:	e1a00004 	mov	r0, r4
    440c:	e1a01005 	mov	r1, r5
    4410:	eb0010d2 	bl	8760 <__aeabi_dsub>
    4414:	e5e78001 	strb	r8, [r7, #1]!
    4418:	e157000a 	cmp	r7, r10
    441c:	1affffee 	bne	43dc <_dtoa_r+0xfb4>
    4420:	e1a05001 	mov	r5, r1
    4424:	e59d2050 	ldr	r2, [sp, #80]	; 0x50
    4428:	e59d1030 	ldr	r1, [sp, #48]	; 0x30
    442c:	e1a04000 	mov	r4, r0
    4430:	e081c002 	add	r12, r1, r2
    4434:	e3a02000 	mov	r2, #0
    4438:	e51f3a38 	ldr	r3, [pc, #-2616]	; 3a08 <_dtoa_r+0x5e0>
    443c:	e28d1058 	add	r1, sp, #88	; 0x58
    4440:	e8910003 	ldm	r1, {r0, r1}
    4444:	e58dc008 	str	r12, [sp, #8]
    4448:	eb0010c5 	bl	8764 <__adddf3>
    444c:	e1a02004 	mov	r2, r4
    4450:	e1a03005 	mov	r3, r5
    4454:	eb001326 	bl	90f4 <__aeabi_dcmplt>
    4458:	e3500000 	cmp	r0, #0
    445c:	e59dc008 	ldr	r12, [sp, #8]
    4460:	0a0000ee 	beq	4820 <_dtoa_r+0x13f8>
    4464:	e55c8001 	ldrb	r8, [r12, #-1]
    4468:	e59d4024 	ldr	r4, [sp, #36]	; 0x24
    446c:	eafffd4d 	b	39a8 <_dtoa_r+0x580>
    4470:	e5973010 	ldr	r3, [r7, #16]
    4474:	e0873103 	add	r3, r7, r3, lsl #2
    4478:	e5930010 	ldr	r0, [r3, #16]
    447c:	eb000510 	bl	58c4 <__hi0bits>
    4480:	e2600020 	rsb	r0, r0, #32
    4484:	eafffdb1 	b	3b50 <_dtoa_r+0x728>
    4488:	e1a0000b 	mov	r0, r11
    448c:	e1a01007 	mov	r1, r7
    4490:	eb000644 	bl	5da8 <__mcmp>
    4494:	e3500000 	cmp	r0, #0
    4498:	aafffdce 	bge	3bd8 <_dtoa_r+0x7b0>
    449c:	e1a0100b 	mov	r1, r11
    44a0:	e1a00006 	mov	r0, r6
    44a4:	e3a0200a 	mov	r2, #10
    44a8:	e3a03000 	mov	r3, #0
    44ac:	eb000491 	bl	56f8 <__multadd>
    44b0:	e59dc040 	ldr	r12, [sp, #64]	; 0x40
    44b4:	e35c0000 	cmp	r12, #0
    44b8:	e1a0b000 	mov	r11, r0
    44bc:	e2499001 	sub	r9, r9, #1
    44c0:	1a00016e 	bne	4a80 <_dtoa_r+0x1658>
    44c4:	e59d4044 	ldr	r4, [sp, #68]	; 0x44
    44c8:	e59dc0a0 	ldr	r12, [sp, #160]	; 0xa0
    44cc:	e3540000 	cmp	r4, #0
    44d0:	c3a03000 	movgt	r3, #0
    44d4:	d3a03001 	movle	r3, #1
    44d8:	e35c0002 	cmp	r12, #2
    44dc:	d3a03000 	movle	r3, #0
    44e0:	e3530000 	cmp	r3, #0
    44e4:	058d4038 	streq	r4, [sp, #56]	; 0x38
    44e8:	0affff37 	beq	41cc <_dtoa_r+0xda4>
    44ec:	e59dc044 	ldr	r12, [sp, #68]	; 0x44
    44f0:	e58dc038 	str	r12, [sp, #56]	; 0x38
    44f4:	eafffdc0 	b	3bfc <_dtoa_r+0x7d4>
    44f8:	e59d4038 	ldr	r4, [sp, #56]	; 0x38
    44fc:	e3540000 	cmp	r4, #0
    4500:	1a00011e 	bne	4980 <_dtoa_r+0x1558>
    4504:	e3a02000 	mov	r2, #0
    4508:	e51f3b18 	ldr	r3, [pc, #-2840]	; 39f8 <_dtoa_r+0x5d0>
    450c:	e28d1018 	add	r1, sp, #24
    4510:	e8910003 	ldm	r1, {r0, r1}
    4514:	eb001196 	bl	8b74 <__aeabi_dmul>
    4518:	e28d3010 	add	r3, sp, #16
    451c:	e893000c 	ldm	r3, {r2, r3}
    4520:	eb0012ff 	bl	9124 <__aeabi_dcmpge>
    4524:	e59d7038 	ldr	r7, [sp, #56]	; 0x38
    4528:	e3500000 	cmp	r0, #0
    452c:	e1a0a007 	mov	r10, r7
    4530:	1affff1d 	bne	41ac <_dtoa_r+0xd84>
    4534:	eafffdbe 	b	3c34 <_dtoa_r+0x80c>
    4538:	e59d1010 	ldr	r1, [sp, #16]
    453c:	e3510000 	cmp	r1, #0
    4540:	1afffd7d 	bne	3b3c <_dtoa_r+0x714>
    4544:	e59d3014 	ldr	r3, [sp, #20]
    4548:	e3c324ff 	bic	r2, r3, #-16777216	; 0xff000000
    454c:	e3c2260f 	bic	r2, r2, #15728640	; 0xf00000
    4550:	e3520000 	cmp	r2, #0
    4554:	1a000121 	bne	49e0 <_dtoa_r+0x15b8>
    4558:	e51f5b64 	ldr	r5, [pc, #-2916]	; 39fc <_dtoa_r+0x5d4>
    455c:	e0035005 	and	r5, r3, r5
    4560:	e3550000 	cmp	r5, #0
    4564:	0afffd75 	beq	3b40 <_dtoa_r+0x718>
    4568:	e59dc02c 	ldr	r12, [sp, #44]	; 0x2c
    456c:	e28cc001 	add	r12, r12, #1
    4570:	e58dc02c 	str	r12, [sp, #44]	; 0x2c
    4574:	e59dc028 	ldr	r12, [sp, #40]	; 0x28
    4578:	e28cc001 	add	r12, r12, #1
    457c:	e58dc028 	str	r12, [sp, #40]	; 0x28
    4580:	e3a05001 	mov	r5, #1
    4584:	eafffd6d 	b	3b40 <_dtoa_r+0x718>
    4588:	e3540000 	cmp	r4, #0
    458c:	da000004 	ble	45a4 <_dtoa_r+0x117c>
    4590:	e1a0100a 	mov	r1, r10
    4594:	e1a00006 	mov	r0, r6
    4598:	e1a02004 	mov	r2, r4
    459c:	eb0005c0 	bl	5ca4 <__lshift>
    45a0:	e1a0a000 	mov	r10, r0
    45a4:	e3550000 	cmp	r5, #0
    45a8:	01a0800a 	moveq	r8, r10
    45ac:	1a0000f6 	bne	498c <_dtoa_r+0x1564>
    45b0:	e59d1038 	ldr	r1, [sp, #56]	; 0x38
    45b4:	e59dc024 	ldr	r12, [sp, #36]	; 0x24
    45b8:	e08cc001 	add	r12, r12, r1
    45bc:	e59d4024 	ldr	r4, [sp, #36]	; 0x24
    45c0:	e58dc02c 	str	r12, [sp, #44]	; 0x2c
    45c4:	e59dc010 	ldr	r12, [sp, #16]
    45c8:	e2844001 	add	r4, r4, #1
    45cc:	e20cc001 	and	r12, r12, #1
    45d0:	e58d4030 	str	r4, [sp, #48]	; 0x30
    45d4:	e1a0500a 	mov	r5, r10
    45d8:	e58dc020 	str	r12, [sp, #32]
    45dc:	e58d9038 	str	r9, [sp, #56]	; 0x38
    45e0:	ea00002e 	b	46a0 <_dtoa_r+0x1278>
    45e4:	e1a00006 	mov	r0, r6
    45e8:	e1a01003 	mov	r1, r3
    45ec:	e58d200c 	str	r2, [sp, #12]
    45f0:	eb000439 	bl	56dc <_Bfree>
    45f4:	e59d200c 	ldr	r2, [sp, #12]
    45f8:	e59dc0a0 	ldr	r12, [sp, #160]	; 0xa0
    45fc:	e192c00c 	orrs	r12, r2, r12
    4600:	1a000002 	bne	4610 <_dtoa_r+0x11e8>
    4604:	e59dc020 	ldr	r12, [sp, #32]
    4608:	e35c0000 	cmp	r12, #0
    460c:	0a000109 	beq	4a38 <_dtoa_r+0x1610>
    4610:	e35a0000 	cmp	r10, #0
    4614:	ba0000a6 	blt	48b4 <_dtoa_r+0x148c>
    4618:	e59dc0a0 	ldr	r12, [sp, #160]	; 0xa0
    461c:	e19ac00c 	orrs	r12, r10, r12
    4620:	1a000002 	bne	4630 <_dtoa_r+0x1208>
    4624:	e59dc020 	ldr	r12, [sp, #32]
    4628:	e35c0000 	cmp	r12, #0
    462c:	0a0000a0 	beq	48b4 <_dtoa_r+0x148c>
    4630:	e3520000 	cmp	r2, #0
    4634:	ca0000eb 	bgt	49e8 <_dtoa_r+0x15c0>
    4638:	e59dc02c 	ldr	r12, [sp, #44]	; 0x2c
    463c:	e154000c 	cmp	r4, r12
    4640:	e5449001 	strb	r9, [r4, #-1]
    4644:	e1a0c004 	mov	r12, r4
    4648:	0a0000f1 	beq	4a14 <_dtoa_r+0x15ec>
    464c:	e1a0100b 	mov	r1, r11
    4650:	e1a00006 	mov	r0, r6
    4654:	e3a0200a 	mov	r2, #10
    4658:	e3a03000 	mov	r3, #0
    465c:	eb000425 	bl	56f8 <__multadd>
    4660:	e1550008 	cmp	r5, r8
    4664:	e1a0b000 	mov	r11, r0
    4668:	0a000028 	beq	4710 <_dtoa_r+0x12e8>
    466c:	e1a01005 	mov	r1, r5
    4670:	e3a0200a 	mov	r2, #10
    4674:	e3a03000 	mov	r3, #0
    4678:	e1a00006 	mov	r0, r6
    467c:	eb00041d 	bl	56f8 <__multadd>
    4680:	e1a01008 	mov	r1, r8
    4684:	e1a05000 	mov	r5, r0
    4688:	e3a0200a 	mov	r2, #10
    468c:	e1a00006 	mov	r0, r6
    4690:	e3a03000 	mov	r3, #0
    4694:	eb000417 	bl	56f8 <__multadd>
    4698:	e1a08000 	mov	r8, r0
    469c:	e2844001 	add	r4, r4, #1
    46a0:	e1a01007 	mov	r1, r7
    46a4:	e1a0000b 	mov	r0, r11
    46a8:	ebfffae6 	bl	3248 <quorem>
    46ac:	e1a01005 	mov	r1, r5
    46b0:	e58d0010 	str	r0, [sp, #16]
    46b4:	e1a0000b 	mov	r0, r11
    46b8:	eb0005ba 	bl	5da8 <__mcmp>
    46bc:	e1a02008 	mov	r2, r8
    46c0:	e1a0a000 	mov	r10, r0
    46c4:	e1a01007 	mov	r1, r7
    46c8:	e1a00006 	mov	r0, r6
    46cc:	eb0005ce 	bl	5e0c <__mdiff>
    46d0:	e244c001 	sub	r12, r4, #1
    46d4:	e590200c 	ldr	r2, [r0, #12]
    46d8:	e58dc028 	str	r12, [sp, #40]	; 0x28
    46dc:	e59dc010 	ldr	r12, [sp, #16]
    46e0:	e3520000 	cmp	r2, #0
    46e4:	e1a03000 	mov	r3, r0
    46e8:	e28c9030 	add	r9, r12, #48	; 0x30
    46ec:	13a02001 	movne	r2, #1
    46f0:	1affffbb 	bne	45e4 <_dtoa_r+0x11bc>
    46f4:	e1a01003 	mov	r1, r3
    46f8:	e1a0000b 	mov	r0, r11
    46fc:	e58d300c 	str	r3, [sp, #12]
    4700:	eb0005a8 	bl	5da8 <__mcmp>
    4704:	e59d300c 	ldr	r3, [sp, #12]
    4708:	e1a02000 	mov	r2, r0
    470c:	eaffffb4 	b	45e4 <_dtoa_r+0x11bc>
    4710:	e1a01005 	mov	r1, r5
    4714:	e1a00006 	mov	r0, r6
    4718:	e3a0200a 	mov	r2, #10
    471c:	e3a03000 	mov	r3, #0
    4720:	eb0003f4 	bl	56f8 <__multadd>
    4724:	e1a05000 	mov	r5, r0
    4728:	e1a08000 	mov	r8, r0
    472c:	eaffffda 	b	469c <_dtoa_r+0x1274>
    4730:	e3a03001 	mov	r3, #1
    4734:	e58d3044 	str	r3, [sp, #68]	; 0x44
    4738:	e58d3038 	str	r3, [sp, #56]	; 0x38
    473c:	e58d30a4 	str	r3, [sp, #164]	; 0xa4
    4740:	e3a01000 	mov	r1, #0
    4744:	e5861044 	str	r1, [r6, #68]	; 0x44
    4748:	e0034004 	and	r4, r3, r4
    474c:	eafffda7 	b	3df0 <_dtoa_r+0x9c8>
    4750:	e358000e 	cmp	r8, #14
    4754:	83a03000 	movhi	r3, #0
    4758:	93a03001 	movls	r3, #1
    475c:	e58d8038 	str	r8, [sp, #56]	; 0x38
    4760:	eafffff6 	b	4740 <_dtoa_r+0x1318>
    4764:	e1a0100b 	mov	r1, r11
    4768:	e1a00006 	mov	r0, r6
    476c:	e59d203c 	ldr	r2, [sp, #60]	; 0x3c
    4770:	eb00050e 	bl	5bb0 <__pow5mult>
    4774:	e1a0b000 	mov	r11, r0
    4778:	eafffce0 	b	3b00 <_dtoa_r+0x6d8>
    477c:	e1a0c006 	mov	r12, r6
    4780:	e59d9020 	ldr	r9, [sp, #32]
    4784:	e59d6028 	ldr	r6, [sp, #40]	; 0x28
    4788:	e59d4024 	ldr	r4, [sp, #36]	; 0x24
    478c:	e58dc024 	str	r12, [sp, #36]	; 0x24
    4790:	eafffd39 	b	3c7c <_dtoa_r+0x854>
    4794:	e28d4010 	add	r4, sp, #16
    4798:	e8940018 	ldm	r4, {r3, r4}
    479c:	e3a08002 	mov	r8, #2
    47a0:	e58d3030 	str	r3, [sp, #48]	; 0x30
    47a4:	e58d4034 	str	r4, [sp, #52]	; 0x34
    47a8:	eafffdbf 	b	3eac <_dtoa_r+0xa84>
    47ac:	e59dc038 	ldr	r12, [sp, #56]	; 0x38
    47b0:	e35c0000 	cmp	r12, #0
    47b4:	0afffe5e 	beq	4134 <_dtoa_r+0xd0c>
    47b8:	e59d4044 	ldr	r4, [sp, #68]	; 0x44
    47bc:	e3540000 	cmp	r4, #0
    47c0:	dafffbf2 	ble	3790 <_dtoa_r+0x368>
    47c4:	e3a02000 	mov	r2, #0
    47c8:	e51f3dd0 	ldr	r3, [pc, #-3536]	; 3a00 <_dtoa_r+0x5d8>
    47cc:	e28d1030 	add	r1, sp, #48	; 0x30
    47d0:	e8910003 	ldm	r1, {r0, r1}
    47d4:	eb0010e6 	bl	8b74 <__aeabi_dmul>
    47d8:	e58d0030 	str	r0, [sp, #48]	; 0x30
    47dc:	e58d1034 	str	r1, [sp, #52]	; 0x34
    47e0:	e2880001 	add	r0, r8, #1
    47e4:	eb0010ab 	bl	8a98 <__aeabi_i2d>
    47e8:	e1a02000 	mov	r2, r0
    47ec:	e1a03001 	mov	r3, r1
    47f0:	e28d1030 	add	r1, sp, #48	; 0x30
    47f4:	e8910003 	ldm	r1, {r0, r1}
    47f8:	eb0010dd 	bl	8b74 <__aeabi_dmul>
    47fc:	e3a02000 	mov	r2, #0
    4800:	e51f3e04 	ldr	r3, [pc, #-3588]	; 3a04 <_dtoa_r+0x5dc>
    4804:	eb000fd6 	bl	8764 <__adddf3>
    4808:	e249c001 	sub	r12, r9, #1
    480c:	e1a04000 	mov	r4, r0
    4810:	e58dc064 	str	r12, [sp, #100]	; 0x64
    4814:	e241550d 	sub	r5, r1, #54525952	; 0x3400000
    4818:	e59da044 	ldr	r10, [sp, #68]	; 0x44
    481c:	eafffdbb 	b	3f10 <_dtoa_r+0xae8>
    4820:	e28d3058 	add	r3, sp, #88	; 0x58
    4824:	e893000c 	ldm	r3, {r2, r3}
    4828:	e3a00000 	mov	r0, #0
    482c:	e51f1e2c 	ldr	r1, [pc, #-3628]	; 3a08 <_dtoa_r+0x5e0>
    4830:	e58dc008 	str	r12, [sp, #8]
    4834:	eb000fc9 	bl	8760 <__aeabi_dsub>
    4838:	e1a02004 	mov	r2, r4
    483c:	e1a03005 	mov	r3, r5
    4840:	eb00123d 	bl	913c <__aeabi_dcmpgt>
    4844:	e3500000 	cmp	r0, #0
    4848:	e59dc008 	ldr	r12, [sp, #8]
    484c:	0afffbcf 	beq	3790 <_dtoa_r+0x368>
    4850:	e1a0900c 	mov	r9, r12
    4854:	e5592001 	ldrb	r2, [r9, #-1]
    4858:	e3520030 	cmp	r2, #48	; 0x30
    485c:	e1a03009 	mov	r3, r9
    4860:	e2499001 	sub	r9, r9, #1
    4864:	0afffffa 	beq	4854 <_dtoa_r+0x142c>
    4868:	e59d4024 	ldr	r4, [sp, #36]	; 0x24
    486c:	e59d9064 	ldr	r9, [sp, #100]	; 0x64
    4870:	e58d3024 	str	r3, [sp, #36]	; 0x24
    4874:	eafffd00 	b	3c7c <_dtoa_r+0x854>
    4878:	e1a0100b 	mov	r1, r11
    487c:	e1a00006 	mov	r0, r6
    4880:	eb0004ca 	bl	5bb0 <__pow5mult>
    4884:	e1a0b000 	mov	r11, r0
    4888:	eafffc9c 	b	3b00 <_dtoa_r+0x6d8>
    488c:	e59d4060 	ldr	r4, [sp, #96]	; 0x60
    4890:	e3540000 	cmp	r4, #0
    4894:	059d3070 	ldreq	r3, [sp, #112]	; 0x70
    4898:	12833e43 	addne	r3, r3, #1072	; 0x430
    489c:	12833003 	addne	r3, r3, #3
    48a0:	159d503c 	ldrne	r5, [sp, #60]	; 0x3c
    48a4:	059d503c 	ldreq	r5, [sp, #60]	; 0x3c
    48a8:	02633036 	rsbeq	r3, r3, #54	; 0x36
    48ac:	e59d402c 	ldr	r4, [sp, #44]	; 0x2c
    48b0:	eafffd2b 	b	3d64 <_dtoa_r+0x93c>
    48b4:	e1a03009 	mov	r3, r9
    48b8:	e3520000 	cmp	r2, #0
    48bc:	e59d9038 	ldr	r9, [sp, #56]	; 0x38
    48c0:	e1a04003 	mov	r4, r3
    48c4:	da00000e 	ble	4904 <_dtoa_r+0x14dc>
    48c8:	e1a0100b 	mov	r1, r11
    48cc:	e3a02001 	mov	r2, #1
    48d0:	e1a00006 	mov	r0, r6
    48d4:	e58d300c 	str	r3, [sp, #12]
    48d8:	eb0004f1 	bl	5ca4 <__lshift>
    48dc:	e1a01007 	mov	r1, r7
    48e0:	e1a0b000 	mov	r11, r0
    48e4:	eb00052f 	bl	5da8 <__mcmp>
    48e8:	e3500000 	cmp	r0, #0
    48ec:	e59d300c 	ldr	r3, [sp, #12]
    48f0:	da000058 	ble	4a58 <_dtoa_r+0x1630>
    48f4:	e3540039 	cmp	r4, #57	; 0x39
    48f8:	e59d4010 	ldr	r4, [sp, #16]
    48fc:	e2843031 	add	r3, r4, #49	; 0x31
    4900:	0a000047 	beq	4a24 <_dtoa_r+0x15fc>
    4904:	e59d2028 	ldr	r2, [sp, #40]	; 0x28
    4908:	e4c23001 	strb	r3, [r2], #1
    490c:	e59d4024 	ldr	r4, [sp, #36]	; 0x24
    4910:	e1a0a008 	mov	r10, r8
    4914:	e58d2024 	str	r2, [sp, #36]	; 0x24
    4918:	eafffccc 	b	3c50 <_dtoa_r+0x828>
    491c:	e1a0c00b 	mov	r12, r11
    4920:	e59d6068 	ldr	r6, [sp, #104]	; 0x68
    4924:	e59db058 	ldr	r11, [sp, #88]	; 0x58
    4928:	e59d4024 	ldr	r4, [sp, #36]	; 0x24
    492c:	eafffc1d 	b	39a8 <_dtoa_r+0x580>
    4930:	e58d9024 	str	r9, [sp, #36]	; 0x24
    4934:	e2888001 	add	r8, r8, #1
    4938:	e59d9064 	ldr	r9, [sp, #100]	; 0x64
    493c:	eafffc40 	b	3a44 <_dtoa_r+0x61c>
    4940:	e59d906c 	ldr	r9, [sp, #108]	; 0x6c
    4944:	e59db058 	ldr	r11, [sp, #88]	; 0x58
    4948:	e59d6068 	ldr	r6, [sp, #104]	; 0x68
    494c:	eafffb8f 	b	3790 <_dtoa_r+0x368>
    4950:	1a000001 	bne	495c <_dtoa_r+0x1534>
    4954:	e3130001 	tst	r3, #1
    4958:	1afffe41 	bne	4264 <_dtoa_r+0xe3c>
    495c:	e1a0100c 	mov	r1, r12
    4960:	e5512001 	ldrb	r2, [r1, #-1]
    4964:	e3520030 	cmp	r2, #48	; 0x30
    4968:	e1a03001 	mov	r3, r1
    496c:	e2411001 	sub	r1, r1, #1
    4970:	0afffffa 	beq	4960 <_dtoa_r+0x1538>
    4974:	e59d4024 	ldr	r4, [sp, #36]	; 0x24
    4978:	e58d3024 	str	r3, [sp, #36]	; 0x24
    497c:	eafffcb3 	b	3c50 <_dtoa_r+0x828>
    4980:	e3a07000 	mov	r7, #0
    4984:	e1a0a007 	mov	r10, r7
    4988:	eafffe07 	b	41ac <_dtoa_r+0xd84>
    498c:	e59a1004 	ldr	r1, [r10, #4]
    4990:	e1a00006 	mov	r0, r6
    4994:	eb00032d 	bl	5650 <_Balloc>
    4998:	e59a2010 	ldr	r2, [r10, #16]
    499c:	e2822002 	add	r2, r2, #2
    49a0:	e1a04000 	mov	r4, r0
    49a4:	e1a02102 	lsl	r2, r2, #2
    49a8:	e28a100c 	add	r1, r10, #12
    49ac:	e280000c 	add	r0, r0, #12
    49b0:	eb0002a1 	bl	543c <memcpy>
    49b4:	e1a00006 	mov	r0, r6
    49b8:	e1a01004 	mov	r1, r4
    49bc:	e3a02001 	mov	r2, #1
    49c0:	eb0004b7 	bl	5ca4 <__lshift>
    49c4:	e1a08000 	mov	r8, r0
    49c8:	eafffef8 	b	45b0 <_dtoa_r+0x1188>
    49cc:	e2833001 	add	r3, r3, #1
    49d0:	e59d4024 	ldr	r4, [sp, #36]	; 0x24
    49d4:	e5c23000 	strb	r3, [r2]
    49d8:	e58d1024 	str	r1, [sp, #36]	; 0x24
    49dc:	eafffc9b 	b	3c50 <_dtoa_r+0x828>
    49e0:	e59d5010 	ldr	r5, [sp, #16]
    49e4:	eafffc55 	b	3b40 <_dtoa_r+0x718>
    49e8:	e1a03009 	mov	r3, r9
    49ec:	e3530039 	cmp	r3, #57	; 0x39
    49f0:	e59d9038 	ldr	r9, [sp, #56]	; 0x38
    49f4:	0a00000a 	beq	4a24 <_dtoa_r+0x15fc>
    49f8:	e59d2028 	ldr	r2, [sp, #40]	; 0x28
    49fc:	e2833001 	add	r3, r3, #1
    4a00:	e4c23001 	strb	r3, [r2], #1
    4a04:	e59d4024 	ldr	r4, [sp, #36]	; 0x24
    4a08:	e1a0a008 	mov	r10, r8
    4a0c:	e58d2024 	str	r2, [sp, #36]	; 0x24
    4a10:	eafffc8e 	b	3c50 <_dtoa_r+0x828>
    4a14:	e1a03009 	mov	r3, r9
    4a18:	e1a0a008 	mov	r10, r8
    4a1c:	e59d9038 	ldr	r9, [sp, #56]	; 0x38
    4a20:	eafffe02 	b	4230 <_dtoa_r+0xe08>
    4a24:	e59dc028 	ldr	r12, [sp, #40]	; 0x28
    4a28:	e3a03039 	mov	r3, #57	; 0x39
    4a2c:	e4cc3001 	strb	r3, [r12], #1
    4a30:	e1a0a008 	mov	r10, r8
    4a34:	eafffe0e 	b	4274 <_dtoa_r+0xe4c>
    4a38:	e1a03009 	mov	r3, r9
    4a3c:	e3530039 	cmp	r3, #57	; 0x39
    4a40:	e59d9038 	ldr	r9, [sp, #56]	; 0x38
    4a44:	0afffff6 	beq	4a24 <_dtoa_r+0x15fc>
    4a48:	e35a0000 	cmp	r10, #0
    4a4c:	c59d4010 	ldrgt	r4, [sp, #16]
    4a50:	c2843031 	addgt	r3, r4, #49	; 0x31
    4a54:	eaffffaa 	b	4904 <_dtoa_r+0x14dc>
    4a58:	1affffa9 	bne	4904 <_dtoa_r+0x14dc>
    4a5c:	e3130001 	tst	r3, #1
    4a60:	0affffa7 	beq	4904 <_dtoa_r+0x14dc>
    4a64:	eaffffa2 	b	48f4 <_dtoa_r+0x14cc>
    4a68:	e3a08002 	mov	r8, #2
    4a6c:	eafffd0e 	b	3eac <_dtoa_r+0xa84>
    4a70:	e59dc030 	ldr	r12, [sp, #48]	; 0x30
    4a74:	e59d4024 	ldr	r4, [sp, #36]	; 0x24
    4a78:	e58dc024 	str	r12, [sp, #36]	; 0x24
    4a7c:	eafffc7e 	b	3c7c <_dtoa_r+0x854>
    4a80:	e3a03000 	mov	r3, #0
    4a84:	e1a0100a 	mov	r1, r10
    4a88:	e1a00006 	mov	r0, r6
    4a8c:	e3a0200a 	mov	r2, #10
    4a90:	eb000318 	bl	56f8 <__multadd>
    4a94:	e59dc044 	ldr	r12, [sp, #68]	; 0x44
    4a98:	e59d10a0 	ldr	r1, [sp, #160]	; 0xa0
    4a9c:	e35c0000 	cmp	r12, #0
    4aa0:	c3a03000 	movgt	r3, #0
    4aa4:	d3a03001 	movle	r3, #1
    4aa8:	e3510002 	cmp	r1, #2
    4aac:	d3a03000 	movle	r3, #0
    4ab0:	e3530000 	cmp	r3, #0
    4ab4:	e1a0a000 	mov	r10, r0
    4ab8:	058dc038 	streq	r12, [sp, #56]	; 0x38
    4abc:	0afffeb1 	beq	4588 <_dtoa_r+0x1160>
    4ac0:	e59d4044 	ldr	r4, [sp, #68]	; 0x44
    4ac4:	e58d4038 	str	r4, [sp, #56]	; 0x38
    4ac8:	eafffc4b 	b	3bfc <_dtoa_r+0x7d4>
    4acc:	e59dc030 	ldr	r12, [sp, #48]	; 0x30
    4ad0:	e59d4024 	ldr	r4, [sp, #36]	; 0x24
    4ad4:	e59d9064 	ldr	r9, [sp, #100]	; 0x64
    4ad8:	e58dc024 	str	r12, [sp, #36]	; 0x24
    4adc:	eafffc66 	b	3c7c <_dtoa_r+0x854>
    4ae0:	1263303c 	rsbne	r3, r3, #60	; 0x3c
    4ae4:	0afffc28 	beq	3b8c <_dtoa_r+0x764>
    4ae8:	eafffc20 	b	3b70 <_dtoa_r+0x748>
    4aec:	e1a00000 	nop			; (mov r0, r0)

00004af0 <__libc_fini_array>:
    4af0:	e92d4038 	push	{r3, r4, r5, lr}
    4af4:	e59f5030 	ldr	r5, [pc, #48]	; 4b2c <__libc_fini_array+0x3c>
    4af8:	e59f4030 	ldr	r4, [pc, #48]	; 4b30 <__libc_fini_array+0x40>
    4afc:	e0654004 	rsb	r4, r5, r4
    4b00:	e1b04144 	asrs	r4, r4, #2
    4b04:	10855104 	addne	r5, r5, r4, lsl #2
    4b08:	0a000004 	beq	4b20 <__libc_fini_array+0x30>
    4b0c:	e5353004 	ldr	r3, [r5, #-4]!
    4b10:	e1a0e00f 	mov	lr, pc
    4b14:	e12fff13 	bx	r3
    4b18:	e2544001 	subs	r4, r4, #1
    4b1c:	1afffffa 	bne	4b0c <__libc_fini_array+0x1c>
    4b20:	eb001548 	bl	a048 <__libc_fini>
    4b24:	e8bd4038 	pop	{r3, r4, r5, lr}
    4b28:	e12fff1e 	bx	lr
    4b2c:	0000a060 	.word	0x0000a060
    4b30:	0000a064 	.word	0x0000a064

00004b34 <_setlocale_r>:
    4b34:	e92d4010 	push	{r4, lr}
    4b38:	e2524000 	subs	r4, r2, #0
    4b3c:	0a000004 	beq	4b54 <_setlocale_r+0x20>
    4b40:	e1a00004 	mov	r0, r4
    4b44:	e59f1048 	ldr	r1, [pc, #72]	; 4b94 <_setlocale_r+0x60>
    4b48:	eb000633 	bl	641c <strcmp>
    4b4c:	e3500000 	cmp	r0, #0
    4b50:	1a000002 	bne	4b60 <_setlocale_r+0x2c>
    4b54:	e59f003c 	ldr	r0, [pc, #60]	; 4b98 <_setlocale_r+0x64>
    4b58:	e8bd4010 	pop	{r4, lr}
    4b5c:	e12fff1e 	bx	lr
    4b60:	e1a00004 	mov	r0, r4
    4b64:	e59f102c 	ldr	r1, [pc, #44]	; 4b98 <_setlocale_r+0x64>
    4b68:	eb00062b 	bl	641c <strcmp>
    4b6c:	e3500000 	cmp	r0, #0
    4b70:	0afffff7 	beq	4b54 <_setlocale_r+0x20>
    4b74:	e1a00004 	mov	r0, r4
    4b78:	e59f101c 	ldr	r1, [pc, #28]	; 4b9c <_setlocale_r+0x68>
    4b7c:	eb000626 	bl	641c <strcmp>
    4b80:	e59f3010 	ldr	r3, [pc, #16]	; 4b98 <_setlocale_r+0x64>
    4b84:	e3500000 	cmp	r0, #0
    4b88:	01a00003 	moveq	r0, r3
    4b8c:	13a00000 	movne	r0, #0
    4b90:	eafffff0 	b	4b58 <_setlocale_r+0x24>
    4b94:	00009ed0 	.word	0x00009ed0
    4b98:	00009e58 	.word	0x00009e58
    4b9c:	00009e18 	.word	0x00009e18

00004ba0 <__locale_charset>:
    4ba0:	e59f0000 	ldr	r0, [pc]	; 4ba8 <__locale_charset+0x8>
    4ba4:	e12fff1e 	bx	lr
    4ba8:	0000aa08 	.word	0x0000aa08

00004bac <__locale_mb_cur_max>:
    4bac:	e59f3004 	ldr	r3, [pc, #4]	; 4bb8 <__locale_mb_cur_max+0xc>
    4bb0:	e5930020 	ldr	r0, [r3, #32]
    4bb4:	e12fff1e 	bx	lr
    4bb8:	0000aa08 	.word	0x0000aa08

00004bbc <__locale_msgcharset>:
    4bbc:	e59f0000 	ldr	r0, [pc]	; 4bc4 <__locale_msgcharset+0x8>
    4bc0:	e12fff1e 	bx	lr
    4bc4:	0000aa2c 	.word	0x0000aa2c

00004bc8 <__locale_cjk_lang>:
    4bc8:	e3a00000 	mov	r0, #0
    4bcc:	e12fff1e 	bx	lr

00004bd0 <_localeconv_r>:
    4bd0:	e59f0000 	ldr	r0, [pc]	; 4bd8 <_localeconv_r+0x8>
    4bd4:	e12fff1e 	bx	lr
    4bd8:	0000aa4c 	.word	0x0000aa4c

00004bdc <setlocale>:
    4bdc:	e1a02001 	mov	r2, r1
    4be0:	e59f100c 	ldr	r1, [pc, #12]	; 4bf4 <setlocale+0x18>
    4be4:	e1a03000 	mov	r3, r0
    4be8:	e5910000 	ldr	r0, [r1]
    4bec:	e1a01003 	mov	r1, r3
    4bf0:	eaffffcf 	b	4b34 <_setlocale_r>
    4bf4:	0000a5d8 	.word	0x0000a5d8

00004bf8 <localeconv>:
    4bf8:	e59f0000 	ldr	r0, [pc]	; 4c00 <localeconv+0x8>
    4bfc:	e12fff1e 	bx	lr
    4c00:	0000aa4c 	.word	0x0000aa4c

00004c04 <_malloc_r>:
    4c04:	e92d4ff0 	push	{r4, r5, r6, r7, r8, r9, r10, r11, lr}
    4c08:	e281500b 	add	r5, r1, #11
    4c0c:	e3550016 	cmp	r5, #22
    4c10:	83c55007 	bichi	r5, r5, #7
    4c14:	81a03fa5 	lsrhi	r3, r5, #31
    4c18:	93a03000 	movls	r3, #0
    4c1c:	93a05010 	movls	r5, #16
    4c20:	e1550001 	cmp	r5, r1
    4c24:	21a01003 	movcs	r1, r3
    4c28:	33831001 	orrcc	r1, r3, #1
    4c2c:	e3510000 	cmp	r1, #0
    4c30:	13a0300c 	movne	r3, #12
    4c34:	e24dd00c 	sub	sp, sp, #12
    4c38:	e1a06000 	mov	r6, r0
    4c3c:	15803000 	strne	r3, [r0]
    4c40:	13a04000 	movne	r4, #0
    4c44:	1a000015 	bne	4ca0 <_malloc_r+0x9c>
    4c48:	eb00027e 	bl	5648 <__malloc_lock>
    4c4c:	e3550f7e 	cmp	r5, #504	; 0x1f8
    4c50:	2a000016 	bcs	4cb0 <_malloc_r+0xac>
    4c54:	e59f76b8 	ldr	r7, [pc, #1720]	; 5314 <_malloc_r+0x710>
    4c58:	e1a0e1a5 	lsr	lr, r5, #3
    4c5c:	e087318e 	add	r3, r7, lr, lsl #3
    4c60:	e593400c 	ldr	r4, [r3, #12]
    4c64:	e1540003 	cmp	r4, r3
    4c68:	0a00014b 	beq	519c <_malloc_r+0x598>
    4c6c:	e5943004 	ldr	r3, [r4, #4]
    4c70:	e3c33003 	bic	r3, r3, #3
    4c74:	e0843003 	add	r3, r4, r3
    4c78:	e5930004 	ldr	r0, [r3, #4]
    4c7c:	e2841008 	add	r1, r4, #8
    4c80:	e8910006 	ldm	r1, {r1, r2}
    4c84:	e3800001 	orr	r0, r0, #1
    4c88:	e5830004 	str	r0, [r3, #4]
    4c8c:	e581200c 	str	r2, [r1, #12]
    4c90:	e5821008 	str	r1, [r2, #8]
    4c94:	e1a00006 	mov	r0, r6
    4c98:	eb00026b 	bl	564c <__malloc_unlock>
    4c9c:	e2844008 	add	r4, r4, #8
    4ca0:	e1a00004 	mov	r0, r4
    4ca4:	e28dd00c 	add	sp, sp, #12
    4ca8:	e8bd4ff0 	pop	{r4, r5, r6, r7, r8, r9, r10, r11, lr}
    4cac:	e12fff1e 	bx	lr
    4cb0:	e1b0e4a5 	lsrs	lr, r5, #9
    4cb4:	01a0e1a5 	lsreq	lr, r5, #3
    4cb8:	01a0108e 	lsleq	r1, lr, #1
    4cbc:	1a000061 	bne	4e48 <_malloc_r+0x244>
    4cc0:	e59f764c 	ldr	r7, [pc, #1612]	; 5314 <_malloc_r+0x710>
    4cc4:	e0871101 	add	r1, r7, r1, lsl #2
    4cc8:	e591400c 	ldr	r4, [r1, #12]
    4ccc:	e1510004 	cmp	r1, r4
    4cd0:	1a000005 	bne	4cec <_malloc_r+0xe8>
    4cd4:	ea00000a 	b	4d04 <_malloc_r+0x100>
    4cd8:	e3530000 	cmp	r3, #0
    4cdc:	aa0000d7 	bge	5040 <_malloc_r+0x43c>
    4ce0:	e594400c 	ldr	r4, [r4, #12]
    4ce4:	e1510004 	cmp	r1, r4
    4ce8:	0a000005 	beq	4d04 <_malloc_r+0x100>
    4cec:	e5942004 	ldr	r2, [r4, #4]
    4cf0:	e3c22003 	bic	r2, r2, #3
    4cf4:	e0653002 	rsb	r3, r5, r2
    4cf8:	e353000f 	cmp	r3, #15
    4cfc:	dafffff5 	ble	4cd8 <_malloc_r+0xd4>
    4d00:	e24ee001 	sub	lr, lr, #1
    4d04:	e28ee001 	add	lr, lr, #1
    4d08:	e59f3604 	ldr	r3, [pc, #1540]	; 5314 <_malloc_r+0x710>
    4d0c:	e5974010 	ldr	r4, [r7, #16]
    4d10:	e2838008 	add	r8, r3, #8
    4d14:	e1540008 	cmp	r4, r8
    4d18:	05931004 	ldreq	r1, [r3, #4]
    4d1c:	0a000016 	beq	4d7c <_malloc_r+0x178>
    4d20:	e5942004 	ldr	r2, [r4, #4]
    4d24:	e3c22003 	bic	r2, r2, #3
    4d28:	e0651002 	rsb	r1, r5, r2
    4d2c:	e351000f 	cmp	r1, #15
    4d30:	ca0000f7 	bgt	5114 <_malloc_r+0x510>
    4d34:	e3510000 	cmp	r1, #0
    4d38:	e5838014 	str	r8, [r3, #20]
    4d3c:	e5838010 	str	r8, [r3, #16]
    4d40:	aa000046 	bge	4e60 <_malloc_r+0x25c>
    4d44:	e3520c02 	cmp	r2, #512	; 0x200
    4d48:	2a0000d2 	bcs	5098 <_malloc_r+0x494>
    4d4c:	e5930004 	ldr	r0, [r3, #4]
    4d50:	e1a021a2 	lsr	r2, r2, #3
    4d54:	e1a01142 	asr	r1, r2, #2
    4d58:	e3a0c001 	mov	r12, #1
    4d5c:	e180111c 	orr	r1, r0, r12, lsl r1
    4d60:	e0832182 	add	r2, r3, r2, lsl #3
    4d64:	e5920008 	ldr	r0, [r2, #8]
    4d68:	e584200c 	str	r2, [r4, #12]
    4d6c:	e5840008 	str	r0, [r4, #8]
    4d70:	e5831004 	str	r1, [r3, #4]
    4d74:	e5824008 	str	r4, [r2, #8]
    4d78:	e580400c 	str	r4, [r0, #12]
    4d7c:	e1a0014e 	asr	r0, lr, #2
    4d80:	e3a03001 	mov	r3, #1
    4d84:	e1a00013 	lsl	r0, r3, r0
    4d88:	e1500001 	cmp	r0, r1
    4d8c:	8a00003b 	bhi	4e80 <_malloc_r+0x27c>
    4d90:	e1110000 	tst	r1, r0
    4d94:	1a000008 	bne	4dbc <_malloc_r+0x1b8>
    4d98:	e1a00310 	lsl	r0, r0, r3
    4d9c:	e3cee003 	bic	lr, lr, #3
    4da0:	e1110000 	tst	r1, r0
    4da4:	e28ee004 	add	lr, lr, #4
    4da8:	1a000003 	bne	4dbc <_malloc_r+0x1b8>
    4dac:	e1a00080 	lsl	r0, r0, #1
    4db0:	e1110000 	tst	r1, r0
    4db4:	e28ee004 	add	lr, lr, #4
    4db8:	0afffffb 	beq	4dac <_malloc_r+0x1a8>
    4dbc:	e087a18e 	add	r10, r7, lr, lsl #3
    4dc0:	e1a0c00a 	mov	r12, r10
    4dc4:	e1a0400e 	mov	r4, lr
    4dc8:	e59c300c 	ldr	r3, [r12, #12]
    4dcc:	e15c0003 	cmp	r12, r3
    4dd0:	1a000005 	bne	4dec <_malloc_r+0x1e8>
    4dd4:	ea0000db 	b	5148 <_malloc_r+0x544>
    4dd8:	e3520000 	cmp	r2, #0
    4ddc:	aa0000f4 	bge	51b4 <_malloc_r+0x5b0>
    4de0:	e593300c 	ldr	r3, [r3, #12]
    4de4:	e15c0003 	cmp	r12, r3
    4de8:	0a0000d6 	beq	5148 <_malloc_r+0x544>
    4dec:	e5931004 	ldr	r1, [r3, #4]
    4df0:	e3c11003 	bic	r1, r1, #3
    4df4:	e0652001 	rsb	r2, r5, r1
    4df8:	e352000f 	cmp	r2, #15
    4dfc:	dafffff5 	ble	4dd8 <_malloc_r+0x1d4>
    4e00:	e1a04003 	mov	r4, r3
    4e04:	e593000c 	ldr	r0, [r3, #12]
    4e08:	e5b4c008 	ldr	r12, [r4, #8]!
    4e0c:	e0831005 	add	r1, r3, r5
    4e10:	e382e001 	orr	lr, r2, #1
    4e14:	e3855001 	orr	r5, r5, #1
    4e18:	e58c000c 	str	r0, [r12, #12]
    4e1c:	e580c008 	str	r12, [r0, #8]
    4e20:	e5835004 	str	r5, [r3, #4]
    4e24:	e5871014 	str	r1, [r7, #20]
    4e28:	e5871010 	str	r1, [r7, #16]
    4e2c:	e581800c 	str	r8, [r1, #12]
    4e30:	e5818008 	str	r8, [r1, #8]
    4e34:	e581e004 	str	lr, [r1, #4]
    4e38:	e7812002 	str	r2, [r1, r2]
    4e3c:	e1a00006 	mov	r0, r6
    4e40:	eb000201 	bl	564c <__malloc_unlock>
    4e44:	eaffff95 	b	4ca0 <_malloc_r+0x9c>
    4e48:	e35e0004 	cmp	lr, #4
    4e4c:	8a000087 	bhi	5070 <_malloc_r+0x46c>
    4e50:	e1a0e325 	lsr	lr, r5, #6
    4e54:	e28ee038 	add	lr, lr, #56	; 0x38
    4e58:	e1a0108e 	lsl	r1, lr, #1
    4e5c:	eaffff97 	b	4cc0 <_malloc_r+0xbc>
    4e60:	e0842002 	add	r2, r4, r2
    4e64:	e5923004 	ldr	r3, [r2, #4]
    4e68:	e3833001 	orr	r3, r3, #1
    4e6c:	e5823004 	str	r3, [r2, #4]
    4e70:	e1a00006 	mov	r0, r6
    4e74:	eb0001f4 	bl	564c <__malloc_unlock>
    4e78:	e2844008 	add	r4, r4, #8
    4e7c:	eaffff87 	b	4ca0 <_malloc_r+0x9c>
    4e80:	e5974008 	ldr	r4, [r7, #8]
    4e84:	e594a004 	ldr	r10, [r4, #4]
    4e88:	e3caa003 	bic	r10, r10, #3
    4e8c:	e155000a 	cmp	r5, r10
    4e90:	8a000002 	bhi	4ea0 <_malloc_r+0x29c>
    4e94:	e065300a 	rsb	r3, r5, r10
    4e98:	e353000f 	cmp	r3, #15
    4e9c:	ca00005d 	bgt	5018 <_malloc_r+0x414>
    4ea0:	e59f9470 	ldr	r9, [pc, #1136]	; 5318 <_malloc_r+0x714>
    4ea4:	e5973408 	ldr	r3, [r7, #1032]	; 0x408
    4ea8:	e599b000 	ldr	r11, [r9]
    4eac:	e3730001 	cmn	r3, #1
    4eb0:	e085b00b 	add	r11, r5, r11
    4eb4:	128bba01 	addne	r11, r11, #4096	; 0x1000
    4eb8:	128bb00f 	addne	r11, r11, #15
    4ebc:	13cbbeff 	bicne	r11, r11, #4080	; 0xff0
    4ec0:	028bb010 	addeq	r11, r11, #16
    4ec4:	13cbb00f 	bicne	r11, r11, #15
    4ec8:	e084200a 	add	r2, r4, r10
    4ecc:	e1a00006 	mov	r0, r6
    4ed0:	e1a0100b 	mov	r1, r11
    4ed4:	e58d2004 	str	r2, [sp, #4]
    4ed8:	eb00053f 	bl	63dc <_sbrk_r>
    4edc:	e3700001 	cmn	r0, #1
    4ee0:	e1a08000 	mov	r8, r0
    4ee4:	e59d2004 	ldr	r2, [sp, #4]
    4ee8:	0a0000e2 	beq	5278 <_malloc_r+0x674>
    4eec:	e1520000 	cmp	r2, r0
    4ef0:	8a0000bf 	bhi	51f4 <_malloc_r+0x5f0>
    4ef4:	e5993004 	ldr	r3, [r9, #4]
    4ef8:	e1520008 	cmp	r2, r8
    4efc:	e08b3003 	add	r3, r11, r3
    4f00:	e5893004 	str	r3, [r9, #4]
    4f04:	0a0000df 	beq	5288 <_malloc_r+0x684>
    4f08:	e5971408 	ldr	r1, [r7, #1032]	; 0x408
    4f0c:	e3710001 	cmn	r1, #1
    4f10:	10622008 	rsbne	r2, r2, r8
    4f14:	059f33f8 	ldreq	r3, [pc, #1016]	; 5314 <_malloc_r+0x710>
    4f18:	10833002 	addne	r3, r3, r2
    4f1c:	05838408 	streq	r8, [r3, #1032]	; 0x408
    4f20:	15893004 	strne	r3, [r9, #4]
    4f24:	e2183007 	ands	r3, r8, #7
    4f28:	12632008 	rsbne	r2, r3, #8
    4f2c:	10888002 	addne	r8, r8, r2
    4f30:	12633a01 	rsbne	r3, r3, #4096	; 0x1000
    4f34:	12832008 	addne	r2, r3, #8
    4f38:	e088300b 	add	r3, r8, r11
    4f3c:	03a02a01 	moveq	r2, #4096	; 0x1000
    4f40:	e1a03a03 	lsl	r3, r3, #20
    4f44:	e042ba23 	sub	r11, r2, r3, lsr #20
    4f48:	e1a0100b 	mov	r1, r11
    4f4c:	e1a00006 	mov	r0, r6
    4f50:	eb000521 	bl	63dc <_sbrk_r>
    4f54:	e3700001 	cmn	r0, #1
    4f58:	10682000 	rsbne	r2, r8, r0
    4f5c:	e5993004 	ldr	r3, [r9, #4]
    4f60:	108b2002 	addne	r2, r11, r2
    4f64:	03a0b000 	moveq	r11, #0
    4f68:	13822001 	orrne	r2, r2, #1
    4f6c:	03a02001 	moveq	r2, #1
    4f70:	e08b3003 	add	r3, r11, r3
    4f74:	e1540007 	cmp	r4, r7
    4f78:	e5893004 	str	r3, [r9, #4]
    4f7c:	e5878008 	str	r8, [r7, #8]
    4f80:	e5882004 	str	r2, [r8, #4]
    4f84:	0a00000d 	beq	4fc0 <_malloc_r+0x3bc>
    4f88:	e35a000f 	cmp	r10, #15
    4f8c:	9a0000ac 	bls	5244 <_malloc_r+0x640>
    4f90:	e594c004 	ldr	r12, [r4, #4]
    4f94:	e24a200c 	sub	r2, r10, #12
    4f98:	e3c22007 	bic	r2, r2, #7
    4f9c:	e20cc001 	and	r12, r12, #1
    4fa0:	e0841002 	add	r1, r4, r2
    4fa4:	e3a00005 	mov	r0, #5
    4fa8:	e182c00c 	orr	r12, r2, r12
    4fac:	e352000f 	cmp	r2, #15
    4fb0:	e584c004 	str	r12, [r4, #4]
    4fb4:	e5810004 	str	r0, [r1, #4]
    4fb8:	e5810008 	str	r0, [r1, #8]
    4fbc:	8a0000b8 	bhi	52a4 <_malloc_r+0x6a0>
    4fc0:	e599202c 	ldr	r2, [r9, #44]	; 0x2c
    4fc4:	e1530002 	cmp	r3, r2
    4fc8:	859f2348 	ldrhi	r2, [pc, #840]	; 5318 <_malloc_r+0x714>
    4fcc:	8582302c 	strhi	r3, [r2, #44]	; 0x2c
    4fd0:	e5992030 	ldr	r2, [r9, #48]	; 0x30
    4fd4:	e5974008 	ldr	r4, [r7, #8]
    4fd8:	e1530002 	cmp	r3, r2
    4fdc:	95943004 	ldrls	r3, [r4, #4]
    4fe0:	85942004 	ldrhi	r2, [r4, #4]
    4fe4:	859f132c 	ldrhi	r1, [pc, #812]	; 5318 <_malloc_r+0x714>
    4fe8:	93c33003 	bicls	r3, r3, #3
    4fec:	85813030 	strhi	r3, [r1, #48]	; 0x30
    4ff0:	83c23003 	bichi	r3, r2, #3
    4ff4:	e1550003 	cmp	r5, r3
    4ff8:	e0653003 	rsb	r3, r5, r3
    4ffc:	8a000001 	bhi	5008 <_malloc_r+0x404>
    5000:	e353000f 	cmp	r3, #15
    5004:	ca000003 	bgt	5018 <_malloc_r+0x414>
    5008:	e1a00006 	mov	r0, r6
    500c:	eb00018e 	bl	564c <__malloc_unlock>
    5010:	e3a04000 	mov	r4, #0
    5014:	eaffff21 	b	4ca0 <_malloc_r+0x9c>
    5018:	e0842005 	add	r2, r4, r5
    501c:	e3833001 	orr	r3, r3, #1
    5020:	e3855001 	orr	r5, r5, #1
    5024:	e5845004 	str	r5, [r4, #4]
    5028:	e1a00006 	mov	r0, r6
    502c:	e5823004 	str	r3, [r2, #4]
    5030:	e5872008 	str	r2, [r7, #8]
    5034:	e2844008 	add	r4, r4, #8
    5038:	eb000183 	bl	564c <__malloc_unlock>
    503c:	eaffff17 	b	4ca0 <_malloc_r+0x9c>
    5040:	e0842002 	add	r2, r4, r2
    5044:	e5920004 	ldr	r0, [r2, #4]
    5048:	e2841008 	add	r1, r4, #8
    504c:	e891000a 	ldm	r1, {r1, r3}
    5050:	e3800001 	orr	r0, r0, #1
    5054:	e5820004 	str	r0, [r2, #4]
    5058:	e581300c 	str	r3, [r1, #12]
    505c:	e5831008 	str	r1, [r3, #8]
    5060:	e1a00006 	mov	r0, r6
    5064:	eb000178 	bl	564c <__malloc_unlock>
    5068:	e2844008 	add	r4, r4, #8
    506c:	eaffff0b 	b	4ca0 <_malloc_r+0x9c>
    5070:	e35e0014 	cmp	lr, #20
    5074:	928ee05b 	addls	lr, lr, #91	; 0x5b
    5078:	91a0108e 	lslls	r1, lr, #1
    507c:	9affff0f 	bls	4cc0 <_malloc_r+0xbc>
    5080:	e35e0054 	cmp	lr, #84	; 0x54
    5084:	8a000061 	bhi	5210 <_malloc_r+0x60c>
    5088:	e1a0e625 	lsr	lr, r5, #12
    508c:	e28ee06e 	add	lr, lr, #110	; 0x6e
    5090:	e1a0108e 	lsl	r1, lr, #1
    5094:	eaffff09 	b	4cc0 <_malloc_r+0xbc>
    5098:	e1a034a2 	lsr	r3, r2, #9
    509c:	e3530004 	cmp	r3, #4
    50a0:	9a00004f 	bls	51e4 <_malloc_r+0x5e0>
    50a4:	e3530014 	cmp	r3, #20
    50a8:	9283a05b 	addls	r10, r3, #91	; 0x5b
    50ac:	91a0008a 	lslls	r0, r10, #1
    50b0:	9a000004 	bls	50c8 <_malloc_r+0x4c4>
    50b4:	e3530054 	cmp	r3, #84	; 0x54
    50b8:	8a00007f 	bhi	52bc <_malloc_r+0x6b8>
    50bc:	e1a0a622 	lsr	r10, r2, #12
    50c0:	e28aa06e 	add	r10, r10, #110	; 0x6e
    50c4:	e1a0008a 	lsl	r0, r10, #1
    50c8:	e0870100 	add	r0, r7, r0, lsl #2
    50cc:	e5903008 	ldr	r3, [r0, #8]
    50d0:	e1530000 	cmp	r3, r0
    50d4:	e59fc238 	ldr	r12, [pc, #568]	; 5314 <_malloc_r+0x710>
    50d8:	0a000052 	beq	5228 <_malloc_r+0x624>
    50dc:	e5931004 	ldr	r1, [r3, #4]
    50e0:	e3c11003 	bic	r1, r1, #3
    50e4:	e1520001 	cmp	r2, r1
    50e8:	2a000002 	bcs	50f8 <_malloc_r+0x4f4>
    50ec:	e5933008 	ldr	r3, [r3, #8]
    50f0:	e1500003 	cmp	r0, r3
    50f4:	1afffff8 	bne	50dc <_malloc_r+0x4d8>
    50f8:	e593200c 	ldr	r2, [r3, #12]
    50fc:	e5971004 	ldr	r1, [r7, #4]
    5100:	e584200c 	str	r2, [r4, #12]
    5104:	e5843008 	str	r3, [r4, #8]
    5108:	e583400c 	str	r4, [r3, #12]
    510c:	e5824008 	str	r4, [r2, #8]
    5110:	eaffff19 	b	4d7c <_malloc_r+0x178>
    5114:	e0842005 	add	r2, r4, r5
    5118:	e3810001 	orr	r0, r1, #1
    511c:	e3855001 	orr	r5, r5, #1
    5120:	e5845004 	str	r5, [r4, #4]
    5124:	e5832014 	str	r2, [r3, #20]
    5128:	e5832010 	str	r2, [r3, #16]
    512c:	e582800c 	str	r8, [r2, #12]
    5130:	e9820101 	stmib	r2, {r0, r8}
    5134:	e7821001 	str	r1, [r2, r1]
    5138:	e1a00006 	mov	r0, r6
    513c:	eb000142 	bl	564c <__malloc_unlock>
    5140:	e2844008 	add	r4, r4, #8
    5144:	eafffed5 	b	4ca0 <_malloc_r+0x9c>
    5148:	e2844001 	add	r4, r4, #1
    514c:	e3140003 	tst	r4, #3
    5150:	e28cc008 	add	r12, r12, #8
    5154:	1affff1b 	bne	4dc8 <_malloc_r+0x1c4>
    5158:	e31e0003 	tst	lr, #3
    515c:	e24a3008 	sub	r3, r10, #8
    5160:	0a000062 	beq	52f0 <_malloc_r+0x6ec>
    5164:	e59aa000 	ldr	r10, [r10]
    5168:	e15a0003 	cmp	r10, r3
    516c:	e24ee001 	sub	lr, lr, #1
    5170:	0afffff8 	beq	5158 <_malloc_r+0x554>
    5174:	e5973004 	ldr	r3, [r7, #4]
    5178:	e1a00080 	lsl	r0, r0, #1
    517c:	e1500003 	cmp	r0, r3
    5180:	8affff3e 	bhi	4e80 <_malloc_r+0x27c>
    5184:	e3500000 	cmp	r0, #0
    5188:	0affff3c 	beq	4e80 <_malloc_r+0x27c>
    518c:	e1130000 	tst	r3, r0
    5190:	0a00005a 	beq	5300 <_malloc_r+0x6fc>
    5194:	e1a0e004 	mov	lr, r4
    5198:	eaffff07 	b	4dbc <_malloc_r+0x1b8>
    519c:	e2843008 	add	r3, r4, #8
    51a0:	e5944014 	ldr	r4, [r4, #20]
    51a4:	e1530004 	cmp	r3, r4
    51a8:	028ee002 	addeq	lr, lr, #2
    51ac:	0afffed5 	beq	4d08 <_malloc_r+0x104>
    51b0:	eafffead 	b	4c6c <_malloc_r+0x68>
    51b4:	e0831001 	add	r1, r3, r1
    51b8:	e5910004 	ldr	r0, [r1, #4]
    51bc:	e1a04003 	mov	r4, r3
    51c0:	e5b42008 	ldr	r2, [r4, #8]!
    51c4:	e593300c 	ldr	r3, [r3, #12]
    51c8:	e3800001 	orr	r0, r0, #1
    51cc:	e5810004 	str	r0, [r1, #4]
    51d0:	e582300c 	str	r3, [r2, #12]
    51d4:	e5832008 	str	r2, [r3, #8]
    51d8:	e1a00006 	mov	r0, r6
    51dc:	eb00011a 	bl	564c <__malloc_unlock>
    51e0:	eafffeae 	b	4ca0 <_malloc_r+0x9c>
    51e4:	e1a0a322 	lsr	r10, r2, #6
    51e8:	e28aa038 	add	r10, r10, #56	; 0x38
    51ec:	e1a0008a 	lsl	r0, r10, #1
    51f0:	eaffffb4 	b	50c8 <_malloc_r+0x4c4>
    51f4:	e1540007 	cmp	r4, r7
    51f8:	0affff3d 	beq	4ef4 <_malloc_r+0x2f0>
    51fc:	e59f3110 	ldr	r3, [pc, #272]	; 5314 <_malloc_r+0x710>
    5200:	e5934008 	ldr	r4, [r3, #8]
    5204:	e5943004 	ldr	r3, [r4, #4]
    5208:	e3c33003 	bic	r3, r3, #3
    520c:	eaffff78 	b	4ff4 <_malloc_r+0x3f0>
    5210:	e35e0f55 	cmp	lr, #340	; 0x154
    5214:	8a00000f 	bhi	5258 <_malloc_r+0x654>
    5218:	e1a0e7a5 	lsr	lr, r5, #15
    521c:	e28ee077 	add	lr, lr, #119	; 0x77
    5220:	e1a0108e 	lsl	r1, lr, #1
    5224:	eafffea5 	b	4cc0 <_malloc_r+0xbc>
    5228:	e59c2004 	ldr	r2, [r12, #4]
    522c:	e1a0a14a 	asr	r10, r10, #2
    5230:	e3a01001 	mov	r1, #1
    5234:	e1821a11 	orr	r1, r2, r1, lsl r10
    5238:	e1a02003 	mov	r2, r3
    523c:	e58c1004 	str	r1, [r12, #4]
    5240:	eaffffae 	b	5100 <_malloc_r+0x4fc>
    5244:	e3a03001 	mov	r3, #1
    5248:	e5883004 	str	r3, [r8, #4]
    524c:	e1a04008 	mov	r4, r8
    5250:	e3a03000 	mov	r3, #0
    5254:	eaffff66 	b	4ff4 <_malloc_r+0x3f0>
    5258:	e59f30bc 	ldr	r3, [pc, #188]	; 531c <_malloc_r+0x718>
    525c:	e15e0003 	cmp	lr, r3
    5260:	91a0e925 	lsrls	lr, r5, #18
    5264:	928ee07c 	addls	lr, lr, #124	; 0x7c
    5268:	91a0108e 	lslls	r1, lr, #1
    526c:	83a010fc 	movhi	r1, #252	; 0xfc
    5270:	83a0e07e 	movhi	lr, #126	; 0x7e
    5274:	eafffe91 	b	4cc0 <_malloc_r+0xbc>
    5278:	e5974008 	ldr	r4, [r7, #8]
    527c:	e5943004 	ldr	r3, [r4, #4]
    5280:	e3c33003 	bic	r3, r3, #3
    5284:	eaffff5a 	b	4ff4 <_malloc_r+0x3f0>
    5288:	e1b01a02 	lsls	r1, r2, #20
    528c:	1affff1d 	bne	4f08 <_malloc_r+0x304>
    5290:	e5972008 	ldr	r2, [r7, #8]
    5294:	e08b100a 	add	r1, r11, r10
    5298:	e3811001 	orr	r1, r1, #1
    529c:	e5821004 	str	r1, [r2, #4]
    52a0:	eaffff46 	b	4fc0 <_malloc_r+0x3bc>
    52a4:	e1a00006 	mov	r0, r6
    52a8:	e2841008 	add	r1, r4, #8
    52ac:	eb0009eb 	bl	7a60 <_free_r>
    52b0:	e59f3060 	ldr	r3, [pc, #96]	; 5318 <_malloc_r+0x714>
    52b4:	e5933004 	ldr	r3, [r3, #4]
    52b8:	eaffff40 	b	4fc0 <_malloc_r+0x3bc>
    52bc:	e3530f55 	cmp	r3, #340	; 0x154
    52c0:	91a0a7a2 	lsrls	r10, r2, #15
    52c4:	928aa077 	addls	r10, r10, #119	; 0x77
    52c8:	91a0008a 	lslls	r0, r10, #1
    52cc:	9affff7d 	bls	50c8 <_malloc_r+0x4c4>
    52d0:	e59f1044 	ldr	r1, [pc, #68]	; 531c <_malloc_r+0x718>
    52d4:	e1530001 	cmp	r3, r1
    52d8:	91a0a922 	lsrls	r10, r2, #18
    52dc:	928aa07c 	addls	r10, r10, #124	; 0x7c
    52e0:	91a0008a 	lslls	r0, r10, #1
    52e4:	83a000fc 	movhi	r0, #252	; 0xfc
    52e8:	83a0a07e 	movhi	r10, #126	; 0x7e
    52ec:	eaffff75 	b	50c8 <_malloc_r+0x4c4>
    52f0:	e5973004 	ldr	r3, [r7, #4]
    52f4:	e1c33000 	bic	r3, r3, r0
    52f8:	e5873004 	str	r3, [r7, #4]
    52fc:	eaffff9d 	b	5178 <_malloc_r+0x574>
    5300:	e1a00080 	lsl	r0, r0, #1
    5304:	e1130000 	tst	r3, r0
    5308:	e2844004 	add	r4, r4, #4
    530c:	1affffa0 	bne	5194 <_malloc_r+0x590>
    5310:	eafffffa 	b	5300 <_malloc_r+0x6fc>
    5314:	0000aa84 	.word	0x0000aa84
    5318:	0000af08 	.word	0x0000af08
    531c:	00000554 	.word	0x00000554

00005320 <memchr>:
    5320:	e3100003 	tst	r0, #3
    5324:	e92d0070 	push	{r4, r5, r6}
    5328:	e20110ff 	and	r1, r1, #255	; 0xff
    532c:	0a00003c 	beq	5424 <memchr+0x104>
    5330:	e3520000 	cmp	r2, #0
    5334:	e242c001 	sub	r12, r2, #1
    5338:	0a00003b 	beq	542c <memchr+0x10c>
    533c:	e5d03000 	ldrb	r3, [r0]
    5340:	e1530001 	cmp	r3, r1
    5344:	0a00001f 	beq	53c8 <memchr+0xa8>
    5348:	e2803001 	add	r3, r0, #1
    534c:	ea000006 	b	536c <memchr+0x4c>
    5350:	e35c0000 	cmp	r12, #0
    5354:	0a00001d 	beq	53d0 <memchr+0xb0>
    5358:	e5d02000 	ldrb	r2, [r0]
    535c:	e1520001 	cmp	r2, r1
    5360:	e2833001 	add	r3, r3, #1
    5364:	e24cc001 	sub	r12, r12, #1
    5368:	0a000016 	beq	53c8 <memchr+0xa8>
    536c:	e3130003 	tst	r3, #3
    5370:	e1a00003 	mov	r0, r3
    5374:	1afffff5 	bne	5350 <memchr+0x30>
    5378:	e35c0003 	cmp	r12, #3
    537c:	8a000015 	bhi	53d8 <memchr+0xb8>
    5380:	e35c0000 	cmp	r12, #0
    5384:	e24c4001 	sub	r4, r12, #1
    5388:	0a000010 	beq	53d0 <memchr+0xb0>
    538c:	e5d03000 	ldrb	r3, [r0]
    5390:	e1530001 	cmp	r3, r1
    5394:	0a00000b 	beq	53c8 <memchr+0xa8>
    5398:	e2802001 	add	r2, r0, #1
    539c:	e3a03000 	mov	r3, #0
    53a0:	ea000004 	b	53b8 <memchr+0x98>
    53a4:	e5d0c000 	ldrb	r12, [r0]
    53a8:	e15c0001 	cmp	r12, r1
    53ac:	e2822001 	add	r2, r2, #1
    53b0:	e2833001 	add	r3, r3, #1
    53b4:	0a000003 	beq	53c8 <memchr+0xa8>
    53b8:	e1540003 	cmp	r4, r3
    53bc:	e1a00002 	mov	r0, r2
    53c0:	1afffff7 	bne	53a4 <memchr+0x84>
    53c4:	e3a00000 	mov	r0, #0
    53c8:	e8bd0070 	pop	{r4, r5, r6}
    53cc:	e12fff1e 	bx	lr
    53d0:	e1a0000c 	mov	r0, r12
    53d4:	eafffffb 	b	53c8 <memchr+0xa8>
    53d8:	e1816401 	orr	r6, r1, r1, lsl #8
    53dc:	e1866806 	orr	r6, r6, r6, lsl #16
    53e0:	e5903000 	ldr	r3, [r0]
    53e4:	e59f4048 	ldr	r4, [pc, #72]	; 5434 <memchr+0x114>
    53e8:	e0263003 	eor	r3, r6, r3
    53ec:	e0834004 	add	r4, r3, r4
    53f0:	e59f2040 	ldr	r2, [pc, #64]	; 5438 <memchr+0x118>
    53f4:	e1c44003 	bic	r4, r4, r3
    53f8:	e0042002 	and	r2, r4, r2
    53fc:	e3520000 	cmp	r2, #0
    5400:	e1a05000 	mov	r5, r0
    5404:	e2800004 	add	r0, r0, #4
    5408:	1a000003 	bne	541c <memchr+0xfc>
    540c:	e24cc004 	sub	r12, r12, #4
    5410:	e35c0003 	cmp	r12, #3
    5414:	8afffff1 	bhi	53e0 <memchr+0xc0>
    5418:	eaffffd8 	b	5380 <memchr+0x60>
    541c:	e1a00005 	mov	r0, r5
    5420:	eaffffd6 	b	5380 <memchr+0x60>
    5424:	e1a0c002 	mov	r12, r2
    5428:	eaffffd2 	b	5378 <memchr+0x58>
    542c:	e1a00002 	mov	r0, r2
    5430:	eaffffe4 	b	53c8 <memchr+0xa8>
    5434:	fefefeff 	.word	0xfefefeff
    5438:	80808080 	.word	0x80808080

0000543c <memcpy>:
    543c:	e3520003 	cmp	r2, #3
    5440:	e92d01f0 	push	{r4, r5, r6, r7, r8}
    5444:	8a000009 	bhi	5470 <memcpy+0x34>
    5448:	e3520000 	cmp	r2, #0
    544c:	0a000005 	beq	5468 <memcpy+0x2c>
    5450:	e3a03000 	mov	r3, #0
    5454:	e7d1c003 	ldrb	r12, [r1, r3]
    5458:	e7c0c003 	strb	r12, [r0, r3]
    545c:	e2833001 	add	r3, r3, #1
    5460:	e1530002 	cmp	r3, r2
    5464:	1afffffa 	bne	5454 <memcpy+0x18>
    5468:	e8bd01f0 	pop	{r4, r5, r6, r7, r8}
    546c:	e12fff1e 	bx	lr
    5470:	e3100003 	tst	r0, #3
    5474:	e0802002 	add	r2, r0, r2
    5478:	0a00000b 	beq	54ac <memcpy+0x70>
    547c:	e280c001 	add	r12, r0, #1
    5480:	e2814001 	add	r4, r1, #1
    5484:	e20c3003 	and	r3, r12, #3
    5488:	e5545001 	ldrb	r5, [r4, #-1]
    548c:	e3530000 	cmp	r3, #0
    5490:	e1a01004 	mov	r1, r4
    5494:	e1a0300c 	mov	r3, r12
    5498:	e54c5001 	strb	r5, [r12, #-1]
    549c:	e2844001 	add	r4, r4, #1
    54a0:	e28cc001 	add	r12, r12, #1
    54a4:	1afffff6 	bne	5484 <memcpy+0x48>
    54a8:	ea000000 	b	54b0 <memcpy+0x74>
    54ac:	e1a03000 	mov	r3, r0
    54b0:	e211c003 	ands	r12, r1, #3
    54b4:	1a00004f 	bne	55f8 <memcpy+0x1bc>
    54b8:	e063c002 	rsb	r12, r3, r2
    54bc:	e35c003f 	cmp	r12, #63	; 0x3f
    54c0:	da000024 	ble	5558 <memcpy+0x11c>
    54c4:	e591c000 	ldr	r12, [r1]
    54c8:	e583c000 	str	r12, [r3]
    54cc:	e591c004 	ldr	r12, [r1, #4]
    54d0:	e583c004 	str	r12, [r3, #4]
    54d4:	e591c008 	ldr	r12, [r1, #8]
    54d8:	e583c008 	str	r12, [r3, #8]
    54dc:	e591c00c 	ldr	r12, [r1, #12]
    54e0:	e583c00c 	str	r12, [r3, #12]
    54e4:	e591c010 	ldr	r12, [r1, #16]
    54e8:	e583c010 	str	r12, [r3, #16]
    54ec:	e591c014 	ldr	r12, [r1, #20]
    54f0:	e583c014 	str	r12, [r3, #20]
    54f4:	e591c018 	ldr	r12, [r1, #24]
    54f8:	e583c018 	str	r12, [r3, #24]
    54fc:	e591c01c 	ldr	r12, [r1, #28]
    5500:	e583c01c 	str	r12, [r3, #28]
    5504:	e591c020 	ldr	r12, [r1, #32]
    5508:	e583c020 	str	r12, [r3, #32]
    550c:	e591c024 	ldr	r12, [r1, #36]	; 0x24
    5510:	e583c024 	str	r12, [r3, #36]	; 0x24
    5514:	e591c028 	ldr	r12, [r1, #40]	; 0x28
    5518:	e583c028 	str	r12, [r3, #40]	; 0x28
    551c:	e591c02c 	ldr	r12, [r1, #44]	; 0x2c
    5520:	e583c02c 	str	r12, [r3, #44]	; 0x2c
    5524:	e591c030 	ldr	r12, [r1, #48]	; 0x30
    5528:	e583c030 	str	r12, [r3, #48]	; 0x30
    552c:	e591c034 	ldr	r12, [r1, #52]	; 0x34
    5530:	e583c034 	str	r12, [r3, #52]	; 0x34
    5534:	e591c038 	ldr	r12, [r1, #56]	; 0x38
    5538:	e583c038 	str	r12, [r3, #56]	; 0x38
    553c:	e591c03c 	ldr	r12, [r1, #60]	; 0x3c
    5540:	e2833040 	add	r3, r3, #64	; 0x40
    5544:	e503c004 	str	r12, [r3, #-4]
    5548:	e063c002 	rsb	r12, r3, r2
    554c:	e35c003f 	cmp	r12, #63	; 0x3f
    5550:	e2811040 	add	r1, r1, #64	; 0x40
    5554:	caffffda 	bgt	54c4 <memcpy+0x88>
    5558:	e35c000f 	cmp	r12, #15
    555c:	da00000c 	ble	5594 <memcpy+0x158>
    5560:	e591c000 	ldr	r12, [r1]
    5564:	e583c000 	str	r12, [r3]
    5568:	e591c004 	ldr	r12, [r1, #4]
    556c:	e583c004 	str	r12, [r3, #4]
    5570:	e591c008 	ldr	r12, [r1, #8]
    5574:	e583c008 	str	r12, [r3, #8]
    5578:	e591c00c 	ldr	r12, [r1, #12]
    557c:	e2833010 	add	r3, r3, #16
    5580:	e503c004 	str	r12, [r3, #-4]
    5584:	e063c002 	rsb	r12, r3, r2
    5588:	e35c000f 	cmp	r12, #15
    558c:	e2811010 	add	r1, r1, #16
    5590:	cafffff2 	bgt	5560 <memcpy+0x124>
    5594:	e35c0003 	cmp	r12, #3
    5598:	da00000a 	ble	55c8 <memcpy+0x18c>
    559c:	e283c004 	add	r12, r3, #4
    55a0:	e2814004 	add	r4, r1, #4
    55a4:	e06c3002 	rsb	r3, r12, r2
    55a8:	e5145004 	ldr	r5, [r4, #-4]
    55ac:	e3530003 	cmp	r3, #3
    55b0:	e1a01004 	mov	r1, r4
    55b4:	e1a0300c 	mov	r3, r12
    55b8:	e50c5004 	str	r5, [r12, #-4]
    55bc:	e2844004 	add	r4, r4, #4
    55c0:	e28cc004 	add	r12, r12, #4
    55c4:	cafffff6 	bgt	55a4 <memcpy+0x168>
    55c8:	e1520003 	cmp	r2, r3
    55cc:	82833001 	addhi	r3, r3, #1
    55d0:	82811001 	addhi	r1, r1, #1
    55d4:	82822001 	addhi	r2, r2, #1
    55d8:	9affffa2 	bls	5468 <memcpy+0x2c>
    55dc:	e551c001 	ldrb	r12, [r1, #-1]
    55e0:	e2833001 	add	r3, r3, #1
    55e4:	e1530002 	cmp	r3, r2
    55e8:	e543c002 	strb	r12, [r3, #-2]
    55ec:	e2811001 	add	r1, r1, #1
    55f0:	1afffff9 	bne	55dc <memcpy+0x1a0>
    55f4:	eaffff9b 	b	5468 <memcpy+0x2c>
    55f8:	e0635002 	rsb	r5, r3, r2
    55fc:	e06c4001 	rsb	r4, r12, r1
    5600:	e3550003 	cmp	r5, #3
    5604:	e5945000 	ldr	r5, [r4]
    5608:	daffffee 	ble	55c8 <memcpy+0x18c>
    560c:	e26c6004 	rsb	r6, r12, #4
    5610:	e1a0718c 	lsl	r7, r12, #3
    5614:	e1a06186 	lsl	r6, r6, #3
    5618:	e283c004 	add	r12, r3, #4
    561c:	e1a08735 	lsr	r8, r5, r7
    5620:	e5b45004 	ldr	r5, [r4, #4]!
    5624:	e1888615 	orr	r8, r8, r5, lsl r6
    5628:	e06c3002 	rsb	r3, r12, r2
    562c:	e3530003 	cmp	r3, #3
    5630:	e50c8004 	str	r8, [r12, #-4]
    5634:	e1a0300c 	mov	r3, r12
    5638:	e2811004 	add	r1, r1, #4
    563c:	e28cc004 	add	r12, r12, #4
    5640:	cafffff5 	bgt	561c <memcpy+0x1e0>
    5644:	eaffffdf 	b	55c8 <memcpy+0x18c>

00005648 <__malloc_lock>:
    5648:	e12fff1e 	bx	lr

0000564c <__malloc_unlock>:
    564c:	e12fff1e 	bx	lr

00005650 <_Balloc>:
    5650:	e590304c 	ldr	r3, [r0, #76]	; 0x4c
    5654:	e3530000 	cmp	r3, #0
    5658:	e92d4070 	push	{r4, r5, r6, lr}
    565c:	e1a05000 	mov	r5, r0
    5660:	e1a04001 	mov	r4, r1
    5664:	0a000009 	beq	5690 <_Balloc+0x40>
    5668:	e7930104 	ldr	r0, [r3, r4, lsl #2]
    566c:	e3500000 	cmp	r0, #0
    5670:	0a00000f 	beq	56b4 <_Balloc+0x64>
    5674:	e5902000 	ldr	r2, [r0]
    5678:	e7832104 	str	r2, [r3, r4, lsl #2]
    567c:	e3a03000 	mov	r3, #0
    5680:	e5803010 	str	r3, [r0, #16]
    5684:	e580300c 	str	r3, [r0, #12]
    5688:	e8bd4070 	pop	{r4, r5, r6, lr}
    568c:	e12fff1e 	bx	lr
    5690:	e3a01004 	mov	r1, #4
    5694:	e3a02021 	mov	r2, #33	; 0x21
    5698:	eb00088c 	bl	78d0 <_calloc_r>
    569c:	e3500000 	cmp	r0, #0
    56a0:	e1a03000 	mov	r3, r0
    56a4:	e585004c 	str	r0, [r5, #76]	; 0x4c
    56a8:	1affffee 	bne	5668 <_Balloc+0x18>
    56ac:	e3a00000 	mov	r0, #0
    56b0:	eafffff4 	b	5688 <_Balloc+0x38>
    56b4:	e3a01001 	mov	r1, #1
    56b8:	e1a06411 	lsl	r6, r1, r4
    56bc:	e2862005 	add	r2, r6, #5
    56c0:	e1a00005 	mov	r0, r5
    56c4:	e1a02102 	lsl	r2, r2, #2
    56c8:	eb000880 	bl	78d0 <_calloc_r>
    56cc:	e3500000 	cmp	r0, #0
    56d0:	0afffff5 	beq	56ac <_Balloc+0x5c>
    56d4:	e9800050 	stmib	r0, {r4, r6}
    56d8:	eaffffe7 	b	567c <_Balloc+0x2c>

000056dc <_Bfree>:
    56dc:	e3510000 	cmp	r1, #0
    56e0:	1590304c 	ldrne	r3, [r0, #76]	; 0x4c
    56e4:	15912004 	ldrne	r2, [r1, #4]
    56e8:	17930102 	ldrne	r0, [r3, r2, lsl #2]
    56ec:	15810000 	strne	r0, [r1]
    56f0:	17831102 	strne	r1, [r3, r2, lsl #2]
    56f4:	e12fff1e 	bx	lr

000056f8 <__multadd>:
    56f8:	e92d45f0 	push	{r4, r5, r6, r7, r8, r10, lr}
    56fc:	e5917010 	ldr	r7, [r1, #16]
    5700:	e24dd00c 	sub	sp, sp, #12
    5704:	e1a08001 	mov	r8, r1
    5708:	e1a0a000 	mov	r10, r0
    570c:	e2814014 	add	r4, r1, #20
    5710:	e3a0c000 	mov	r12, #0
    5714:	e5946000 	ldr	r6, [r4]
    5718:	e1a05806 	lsl	r5, r6, #16
    571c:	e1a05825 	lsr	r5, r5, #16
    5720:	e0253592 	mla	r5, r2, r5, r3
    5724:	e1a03826 	lsr	r3, r6, #16
    5728:	e0030392 	mul	r3, r2, r3
    572c:	e1a01805 	lsl	r1, r5, #16
    5730:	e0833825 	add	r3, r3, r5, lsr #16
    5734:	e1a01821 	lsr	r1, r1, #16
    5738:	e28cc001 	add	r12, r12, #1
    573c:	e0811803 	add	r1, r1, r3, lsl #16
    5740:	e157000c 	cmp	r7, r12
    5744:	e1a03823 	lsr	r3, r3, #16
    5748:	e4841004 	str	r1, [r4], #4
    574c:	cafffff0 	bgt	5714 <__multadd+0x1c>
    5750:	e3530000 	cmp	r3, #0
    5754:	0a000006 	beq	5774 <__multadd+0x7c>
    5758:	e5982008 	ldr	r2, [r8, #8]
    575c:	e1570002 	cmp	r7, r2
    5760:	aa000007 	bge	5784 <__multadd+0x8c>
    5764:	e0882107 	add	r2, r8, r7, lsl #2
    5768:	e2877001 	add	r7, r7, #1
    576c:	e5823014 	str	r3, [r2, #20]
    5770:	e5887010 	str	r7, [r8, #16]
    5774:	e1a00008 	mov	r0, r8
    5778:	e28dd00c 	add	sp, sp, #12
    577c:	e8bd45f0 	pop	{r4, r5, r6, r7, r8, r10, lr}
    5780:	e12fff1e 	bx	lr
    5784:	e5981004 	ldr	r1, [r8, #4]
    5788:	e1a0000a 	mov	r0, r10
    578c:	e2811001 	add	r1, r1, #1
    5790:	e58d3004 	str	r3, [sp, #4]
    5794:	ebffffad 	bl	5650 <_Balloc>
    5798:	e5982010 	ldr	r2, [r8, #16]
    579c:	e2822002 	add	r2, r2, #2
    57a0:	e288100c 	add	r1, r8, #12
    57a4:	e1a04000 	mov	r4, r0
    57a8:	e1a02102 	lsl	r2, r2, #2
    57ac:	e280000c 	add	r0, r0, #12
    57b0:	ebffff21 	bl	543c <memcpy>
    57b4:	e5981004 	ldr	r1, [r8, #4]
    57b8:	e59a204c 	ldr	r2, [r10, #76]	; 0x4c
    57bc:	e7920101 	ldr	r0, [r2, r1, lsl #2]
    57c0:	e59d3004 	ldr	r3, [sp, #4]
    57c4:	e5880000 	str	r0, [r8]
    57c8:	e7828101 	str	r8, [r2, r1, lsl #2]
    57cc:	e1a08004 	mov	r8, r4
    57d0:	eaffffe3 	b	5764 <__multadd+0x6c>

000057d4 <__s2b>:
    57d4:	e92d45f8 	push	{r3, r4, r5, r6, r7, r8, r10, lr}
    57d8:	e283c008 	add	r12, r3, #8
    57dc:	e1a07003 	mov	r7, r3
    57e0:	e59f30d8 	ldr	r3, [pc, #216]	; 58c0 <__s2b+0xec>
    57e4:	e0c3e39c 	smull	lr, r3, r12, r3
    57e8:	e1a0cfcc 	asr	r12, r12, #31
    57ec:	e06c30c3 	rsb	r3, r12, r3, asr #1
    57f0:	e3530001 	cmp	r3, #1
    57f4:	e1a05000 	mov	r5, r0
    57f8:	e1a04001 	mov	r4, r1
    57fc:	e1a08002 	mov	r8, r2
    5800:	da00002c 	ble	58b8 <__s2b+0xe4>
    5804:	e3a0c001 	mov	r12, #1
    5808:	e3a01000 	mov	r1, #0
    580c:	e1a0c08c 	lsl	r12, r12, #1
    5810:	e153000c 	cmp	r3, r12
    5814:	e2811001 	add	r1, r1, #1
    5818:	cafffffb 	bgt	580c <__s2b+0x38>
    581c:	e1a00005 	mov	r0, r5
    5820:	ebffff8a 	bl	5650 <_Balloc>
    5824:	e59d3020 	ldr	r3, [sp, #32]
    5828:	e3580009 	cmp	r8, #9
    582c:	e5803014 	str	r3, [r0, #20]
    5830:	e3a03001 	mov	r3, #1
    5834:	e1a01000 	mov	r1, r0
    5838:	e5803010 	str	r3, [r0, #16]
    583c:	d284400a 	addle	r4, r4, #10
    5840:	d3a08009 	movle	r8, #9
    5844:	da00000c 	ble	587c <__s2b+0xa8>
    5848:	e284a009 	add	r10, r4, #9
    584c:	e1a0600a 	mov	r6, r10
    5850:	e0844008 	add	r4, r4, r8
    5854:	e4d63001 	ldrb	r3, [r6], #1
    5858:	e1a00005 	mov	r0, r5
    585c:	e3a0200a 	mov	r2, #10
    5860:	e2433030 	sub	r3, r3, #48	; 0x30
    5864:	ebffffa3 	bl	56f8 <__multadd>
    5868:	e1560004 	cmp	r6, r4
    586c:	e1a01000 	mov	r1, r0
    5870:	1afffff7 	bne	5854 <__s2b+0x80>
    5874:	e08a4008 	add	r4, r10, r8
    5878:	e2444008 	sub	r4, r4, #8
    587c:	e1570008 	cmp	r7, r8
    5880:	da000009 	ble	58ac <__s2b+0xd8>
    5884:	e0687007 	rsb	r7, r8, r7
    5888:	e0847007 	add	r7, r4, r7
    588c:	e4d43001 	ldrb	r3, [r4], #1
    5890:	e1a00005 	mov	r0, r5
    5894:	e3a0200a 	mov	r2, #10
    5898:	e2433030 	sub	r3, r3, #48	; 0x30
    589c:	ebffff95 	bl	56f8 <__multadd>
    58a0:	e1540007 	cmp	r4, r7
    58a4:	e1a01000 	mov	r1, r0
    58a8:	1afffff7 	bne	588c <__s2b+0xb8>
    58ac:	e1a00001 	mov	r0, r1
    58b0:	e8bd45f8 	pop	{r3, r4, r5, r6, r7, r8, r10, lr}
    58b4:	e12fff1e 	bx	lr
    58b8:	e3a01000 	mov	r1, #0
    58bc:	eaffffd6 	b	581c <__s2b+0x48>
    58c0:	38e38e39 	.word	0x38e38e39

000058c4 <__hi0bits>:
    58c4:	e1b02820 	lsrs	r2, r0, #16
    58c8:	e1a03000 	mov	r3, r0
    58cc:	01a03800 	lsleq	r3, r0, #16
    58d0:	13a00000 	movne	r0, #0
    58d4:	03a00010 	moveq	r0, #16
    58d8:	e31304ff 	tst	r3, #-16777216	; 0xff000000
    58dc:	01a03403 	lsleq	r3, r3, #8
    58e0:	02800008 	addeq	r0, r0, #8
